cnumpy.core.multiarray
_reconstruct
p0
(cnumpy
ndarray
p1
(I0
tp2
S'b'
p3
tp4
Rp5
(I1
(I2194
tp6
cnumpy
dtype
p7
(S'O8'
p8
I0
I1
tp9
Rp10
(I3
S'|'
p11
NNNI-1
I-1
I63
tp12
bI00
(lp13
S'Paul Goudfrooij'
p14
aS'Philip Kaaret'
p15
aS'Eric Perlman'
p16
aS'Craig Sarazin'
p17
aS'F. Tavecchio'
p18
aS'Walter Lewin'
p19
aS'Michael Garcia'
p20
aS'Jonathan Grindlay'
p21
aS'Edmund Nelan'
p22
aS'Stefano Casertano'
p23
aS'Ralph Bohlin'
p24
aS'Linda Dressel'
p25
aS'Rosa Diaz-Miller'
p26
aS'Jesus Maiz Apellaniz'
p27
aS'Charles Proffitt'
p28
aS'Scott Friedman'
p29
aS'Bahram Mobasher'
p30
aS'Jessica Kim Quijano'
p31
aS'Alessandra Aloisi'
p32
aS'Thomas Wheeler'
p33
aS'Thomas Brown'
p34
aS'Michael Brown'
p35
aS'Adam Riess'
p36
aS'Max Mutchler'
p37
aS'Colin Cox'
p38
aS'Mauro Giavalisco'
p39
aS'Jennifer Mack'
p40
aS'John Biretta'
p41
aS'Ronald Gilliland'
p42
aS'Shardha Jogee'
p43
aS'Jeremy Walsh'
p44
aS'Sangeeta Malhotra'
p45
aS'Tommy Wiklind'
p46
aS'James Bell'
p47
aS'Megan Sosey'
p48
aS'Inge Heyer'
p49
aS'Gabriel Brammer'
p50
aS'Anton Koekemoer'
p51
aS'Vera Kozhurina-Platais'
p52
aS'James Rhoads'
p53
aS'Alfred Vidal-Madjar'
p54
aS'John Clarke'
p55
aS'Steven Beckwith'
p56
aS'Julia Lee'
p57
aS'Keith Noll'
p58
aS'Margarita Karovska'
p59
aS'Nicholas Scoville'
p60
aS'Ruth Peterson'
p61
aS'Pilar Ruiz-Lapuente'
p62
aS'Frederick Walter'
p63
aS'Raghvendra Sahai'
p64
aS'Ivan King'
p65
aS'Mark Showalter'
p66
aS'George Benedict'
p67
aS'Todd Henry'
p68
aS'Kailash Sahu'
p69
aS'Douglas Gies'
p70
aS"M. Sean O'Brien"
p71
aS'Don Vandenberg'
p72
aS'Howard Bond'
p73
aS'Edward Guinan'
p74
aS"Michael A'Hearn"
p75
aS"Christopher O'Dea"
p76
aS'Robert Fesen'
p77
aS'Derek Fox'
p78
aS'William Jefferys'
p79
aS'Scott Anderson'
p80
aS'Charles Bailyn'
p81
aS'Danny Steeghs'
p82
aS'Rachel Webster'
p83
aS'Gary Ferland'
p84
aS'Karen Leighly'
p85
aS'Edward Olszewski'
p86
aS'George Miley'
p87
aS'Annette Ferguson'
p88
aS'Thomas Puzia'
p89
aS'Charles Alcock'
p90
aS'Robin Ciardullo'
p91
aS'Marc Davis'
p92
aS'Shrinivas Kulkarni'
p93
aS'Michael Drinkwater'
p94
aS'Kevin Luhman'
p95
aS'Bradley Peterson'
p96
aS'Denis Grodent'
p97
aS'Klaus Werner'
p98
aS'Regina Schulte-Ladbeck'
p99
aS'I. Reid'
p100
aS'Paul Feldman'
p101
aS'Luigi Bedin'
p102
aS'Michael Endl'
p103
aS'Joel Bregman'
p104
aS'Chien Peng'
p105
aS'Narciso Benitez'
p106
aS'Jay Howk'
p107
aS'Megan Donahue'
p108
aS'Charles Keyes'
p109
aS'Roser Pello'
p110
aS'Daniel Welty'
p111
aS'Marcella Carollo'
p112
aS'Christopher Fassnacht'
p113
aS'Richard Ellis'
p114
aS'Andrew Robinson'
p115
aS'Imke de Pater'
p116
aS'You-Hua Chu'
p117
aS'Anthony Moffat'
p118
aS'William Merline'
p119
aS'William Borucki'
p120
aS'Alycia Weinberger'
p121
aS'Almudena Alonso-Herrero'
p122
aS'Kathy Rages'
p123
aS'George Pavlov'
p124
aS'Richard de Grijs'
p125
aS'William Sparks'
p126
aS'Leon Koopmans'
p127
aS'Inseok Song'
p128
aS'Glenn Schneider'
p129
aS'Dean Hines'
p130
aS'Farhad Yusef-Zadeh'
p131
aS'John Bahcall'
p132
aS'Michael Corbin'
p133
aS'Misty Bentz'
p134
aS'Alex Filippenko'
p135
aS'Christian Knigge'
p136
aS'David Zurek'
p137
aS'Claus Leitherer'
p138
aS'Stephen Smartt'
p139
aS'Brad Whitmore'
p140
aS'Donald Garnett'
p141
aS'Joseph Shields'
p142
aS'Erich Karkoschka'
p143
aS'Hagai Netzer'
p144
aS'Boris Gaensicke'
p145
aS'Marijn Franx'
p146
aS'Elliott Horch'
p147
aS'Przemyslaw Wozniak'
p148
aS'Mariangela Bernardi'
p149
aS'Christine Jones'
p150
aS'Christopher Conselice'
p151
aS'Thomas Ayres'
p152
aS'Ben Sugerman'
p153
aS'Nolan Walborn'
p154
aS'Clive Tadhunter'
p155
aS'Jason Prochaska'
p156
aS'Wolfgang Brandner'
p157
aS'Thomas Rauch'
p158
aS'R. Tully'
p159
aS'Smita Mathur'
p160
aS'Alex Lobel'
p161
aS'Silvia Zane'
p162
aS'Roberto Soria'
p163
aS'Thaisa Storchi-Bergmann'
p164
aS'Tommaso Treu'
p165
aS'Andres Jordan'
p166
aS'GianLuca Israel'
p167
aS'James Neff'
p168
aS'Christopher Sneden'
p169
aS'Gregory Herczeg'
p170
aS'David Silva'
p171
aS'Nicholas Morgan'
p172
aS'Ricardo Schiavon'
p173
aS'Nahum Arav'
p174
aS'Matthew Malkan'
p175
aS'Paul Kalas'
p176
aS'Slawomir Piatek'
p177
aS'Jack Gabel'
p178
aS'Wei Zheng'
p179
aS'Paula Szkody'
p180
aS'Luciana Bianchi'
p181
aS'Igor Karachentsev'
p182
aS'Seth Redfield'
p183
aS'Xiaohui Fan'
p184
aS'Frederic Courbin'
p185
aS'Aaron Barth'
p186
aS'Nathan Smith'
p187
aS'Andrew Cole'
p188
aS'Mark Wyatt'
p189
aS'Douglas Richstone'
p190
aS'Massimo Robberto'
p191
aS'Kelle Cruz'
p192
aS'Antonella Nota'
p193
aS'Nicole Vogt'
p194
aS'John Huchra'
p195
aS'Richard Shaw'
p196
aS'Jay Anderson'
p197
aS'Robert Hynes'
p198
aS'Jessica Rosenberg'
p199
aS'Donald Hoard'
p200
aS'David Tytler'
p201
aS'Claudia Kretchmer'
p202
aS'Letizia Stanghellini'
p203
aS'Margaret Burbidge'
p204
aS'William Harris'
p205
aS'Roberta Humphreys'
p206
aS'Robert Kirshner'
p207
aS'Blair Savage'
p208
aS'Geoffrey Clayton'
p209
aS'David Trilling'
p210
aS'John Spencer'
p211
aS'Ralph Lorenz'
p212
aS'Carole Haswell'
p213
aS'Arlin Crotts'
p214
aS'James Lauroesch'
p215
aS'Henry Kobulnicky'
p216
aS'Michael West'
p217
aS'David Turnshek'
p218
aS'Edward Jenkins'
p219
aS'Todd Tripp'
p220
aS'Rupali Chandar'
p221
aS'Nickolay Gnedin'
p222
aS'Isaac Shlosman'
p223
aS'Mark Morris'
p224
aS'Holland Ford'
p225
aS'David Kirkman'
p226
aS'Adam Frank'
p227
aS'Roger Angel'
p228
aS'Rachel Somerville'
p229
aS'Gordon Drukier'
p230
aS'Stephen Lawrence'
p231
aS'Jody Wilson'
p232
aS'Rajib Ganguly'
p233
aS'Schuyler Van Dyk'
p234
aS'Seth Cohen'
p235
aS'Norbert Pirzkal'
p236
aS'Tariq Majeed'
p237
aS'Priya Natarajan'
p238
aS'Lin Yan'
p239
aS'Matthew Bobrowsky'
p240
aS'Daniel Proga'
p241
aS'Jodie Martin'
p242
aS'Gerardo Vazquez'
p243
aS'Romeel Dave'
p244
aS'Anil Seth'
p245
aS'Charles Steidel'
p246
aS'Suzanne Hawley'
p247
aS'Lori Feaga'
p248
aS'Jason Rhodes'
p249
aS'Karl Gebhardt'
p250
aS'Jill Bechtold'
p251
aS'amanda hendrix'
p252
aS'Peter Tamblyn'
p253
aS'Armando Gil de Paz'
p254
aS'Laurence Trafton'
p255
aS'Dean McLaughlin'
p256
aS'Caryl Gronwall'
p257
aS'Harold Weaver'
p258
aS'Rita Sambruna'
p259
aS'Ronald Elsner'
p260
aS'Christopher Mauche'
p261
aS'Alexander Brown'
p262
aS'Haldan Cohn'
p263
aS'Fabio Favata'
p264
aS'Herman Marshall'
p265
aS'Leigh Jenkins'
p266
aS'Steven Saar'
p267
aS'Anne Verbiscer'
p268
aS'Shireen Gonzaga'
p269
aS'Marco Sirianni'
p270
aS'Alfred Schultz'
p271
aS'Roelof de Jong'
p272
aS'Soeren Larsen'
p273
aS'Nial Tanvir'
p274
aS'Meghan Gray'
p275
aS'John Gallagher'
p276
aS'Lincoln Greenhill'
p277
aS'Harry Teplitz'
p278
aS'Andrew Zirm'
p279
aS'Scott Chapman'
p280
aS'Patrick McCarthy'
p281
aS'Heather Morrison'
p282
aS'Hans Olofsson'
p283
aS'francesco ferraro'
p284
aS'Mark Lacy'
p285
aS'Michael Gregg'
p286
aS'Michael Shara'
p287
aS'Susan Stolovy'
p288
aS'Joern Rossa'
p289
aS'Alan Stockton'
p290
aS'Rodolfo Barba'
p291
aS'Harald Ebeling'
p292
aS'Gabriela Canalizo'
p293
aS'James Bauer'
p294
aS'Heidi Hammel'
p295
aS'Harvey Richer'
p296
aS'Margaret Meixner'
p297
aS'Ian Bond'
p298
aS'Lutz Wisotzki'
p299
aS'John Blakeslee'
p300
aS'Taft Armandroff'
p301
aS'Barry Madore'
p302
aS'Almudena Prieto'
p303
aS"Robert O'Connell"
p304
aS'Andrew Bunker'
p305
aS'Mary Putman'
p306
aS'Merle Reinhart'
p307
aS'Timothy Brown'
p308
aS'C. Kouveliotou'
p309
aS'Cheryl Pavlovsky'
p310
aS'Santiago Arribas'
p311
aS'Roberto Mignani'
p312
aS'Yazan Momany'
p313
aS'Arthur Davidsen'
p314
aS'Bo Reipurth'
p315
aS'Eric Agol'
p316
aS'David Ardila'
p317
aS'Thomas Erben'
p318
aS'Avishay Gal-Yam'
p319
aS'Brian McNamara'
p320
aS'Saul Perlmutter'
p321
aS'Kim-Vy Tran'
p322
aS'Gary Da Costa'
p323
aS'Carme Gallart'
p324
aS'Jean-Claude Gerard'
p325
aS'Will Grundy'
p326
aS'Chris Kochanek'
p327
aS'Bruce Margon'
p328
aS'Marcella Longhetti'
p329
aS'Peter Milne'
p330
aS'Eric Peng'
p331
aS'Steven Pravdo'
p332
aS'Paul Schechter'
p333
aS'Janet Simpson'
p334
aS'Tammy Smecker-Hane'
p335
aS'Jason Surace'
p336
aS'Daniela Calzetti'
p337
aS'Jeff Hester'
p338
aS'Jeff Kenney'
p339
aS'Arunav Kundu'
p340
aS'Christopher Mullis'
p341
aS'Kai Noeske'
p342
aS'Joana Oliveira'
p343
aS'Edward Robinson'
p344
aS'Karl Stapelfeldt'
p345
aS'Markos Georganopoulos'
p346
aS'Edward Baltz'
p347
aS'David Bennett'
p348
aS'Andrew Fabian'
p349
aS'Edward Fitzpatrick'
p350
aS'Rosa Gonzalez-Delgado'
p351
aS'Philippe Crane'
p352
aS'Markus Kissler-Patig'
p353
aS'Gary Schmidt'
p354
aS'Ray Sharples'
p355
aS'Scott Sheppard'
p356
aS'Faith Vilas'
p357
aS'Herve Bouy'
p358
aS'John Debes'
p359
aS'Andrea Dieball'
p360
aS'Michael Disney'
p361
aS'Simon Dye'
p362
aS'Jay Farihi'
p363
aS'Silvia Galleti'
p364
aS'Dimitrios Gouliermis'
p365
aS'Helmut Jerjen'
p366
aS'Oleg Kargaltsev'
p367
aS'Charles Keeton'
p368
aS'Makoto Kishimoto'
p369
aS'Tod Lauer'
p370
aS'Mario Mateo'
p371
aS'Simona Mei'
p372
aS'Goeran Oestlin'
p373
aS'Gabriel Prochter'
p374
aS'John Raymond'
p375
aS'Ignasi Ribas'
p376
aS'Timothy Roberts'
p377
aS'Ivo Saviane'
p378
aS'Alice Shapley'
p379
aS'Gregory Sivakoff'
p380
aS'Christopher Stubbs'
p381
aS'Andreas Zezas'
p382
aS'Adam Bolton'
p383
aS'Michael Brotherton'
p384
aS'Remi Cabanac'
p385
aS'Arjun Dey'
p386
aS'Aaron Evans'
p387
aS'Nancy Evans'
p388
aS'Luis Ho'
p389
aS'Peter Lundqvist'
p390
aS'Deborah Padgett'
p391
aS'Ata Sarajedini'
p392
aS'Evan Skillman'
p393
aS'David Thilker'
p394
aS'William Vacca'
p395
aS'Daniel Hestroffer'
p396
aS'Edo Berger'
p397
aS'Sean Colgan'
p398
aS'Andrew Dolphin'
p399
aS'Philippe Lamy'
p400
aS'Yeong-Shang Loh'
p401
aS"Charles O'Dell"
p402
aS'Sally Oey'
p403
aS'Anna Pasquali'
p404
aS'Massimo Stiavelli'
p405
aS'Theodore von Hippel'
p406
aS'Bodo Ziegler'
p407
aS'Nicholas Abel'
p408
aS'Gilda Ballester'
p409
aS'David Lambert'
p410
aS'Robert Becker'
p411
aS'Michele Cantiello'
p412
aS'Stefan Cartledge'
p413
aS'Christopher Churchill'
p414
aS'Joseph Collins'
p415
aS'Andrew Connolly'
p416
aS'Renato Dupke'
p417
aS'Vikram Dwarkadas'
p418
aS'Erica Ellingson'
p419
aS'Sandra Faber'
p420
aS'David Finley'
p421
aS'Robert Geller'
p422
aS'Andrea Ghez'
p423
aS'Patrick Godon'
p424
aS'David Goldberg'
p425
aS'Sara Heap'
p426
aS'Matthew Holman'
p427
aS'Benne Holwerda'
p428
aS'Mike Hudson'
p429
aS'Chris Impey'
p430
aS'David Kaplan'
p431
aS'Roy Kilgard'
p432
aS'Hermine Landt'
p433
aS'Douglas Leonard'
p434
aS'Knox Long'
p435
aS'Jennifer Lotz'
p436
aS'Philip Marshall'
p437
aS'Paul Martini'
p438
aS'Joel Primack'
p439
aS'James Schombert'
p440
aS'Paul Scowen'
p441
aS'Marc Seigar'
p442
aS'Angela Speck'
p443
aS'Claudia Urry'
p444
aS'Marianne Vestergaard'
p445
aS'Janos Zsargo'
p446
aS'Malcolm Longair'
p447
aS'Andrew Gould'
p448
aS'Massimo Capaccioli'
p449
aS'Zhaohui Shang'
p450
aS'Jeff Valenti'
p451
aS'James Garvin'
p452
aS'Marco Chiaberge'
p453
aS'Anatoly Suchkov'
p454
aS'Andrew Fruchter'
p455
aS'Matthew Lallo'
p456
aS'Victoria Kaspi'
p457
aS'Daniel Harris'
p458
aS'Shami Chatterjee'
p459
aS'Carol Grady'
p460
aS'Matt Mountain'
p461
aS'Young-Jun Choi'
p462
aS'Amy Simon'
p463
aS'Nate Bastian'
p464
aS'Marc Buie'
p465
aS'Jane Charlton'
p466
aS'Robert Bless'
p467
aS'Orsola De Marco'
p468
aS'Andrea De Luca'
p469
aS'Matthias Dietrich'
p470
aS'Marla Geha'
p471
aS'Timothy Heckman'
p472
aS'Knud Jahnke'
p473
aS'Lucy-Ann McFadden'
p474
aS'Jesper Sollerman'
p475
aS'Larry Sromovsky'
p476
aS'Matthias Stute'
p477
aS'Pieter van Dokkum'
p478
aS'Edwin Bergin'
p479
aS'Colin Borys'
p480
aS'David Bowen'
p481
aS'Hsiao-Wen Chen'
p482
aS'Judith Cohen'
p483
aS'Alan Dressler'
p484
aS'Laurent Drissen'
p485
aS'Reginald Dufour'
p486
aS'Martin Durant'
p487
aS'Oleg Gnedin'
p488
aS'Bradford Holden'
p489
aS'Inger Jorgensen'
p490
aS'Gerard Kriss'
p491
aS'Michael Liu'
p492
aS'Neal Miller'
p493
aS'Leonidas Moustakas'
p494
aS'Brian Patten'
p495
aS'Bradley Schaefer'
p496
aS'Spencer Stanford'
p497
aS'Toshiya Ueta'
p498
aS'Daniel Zucker'
p499
aS'Daniel Batcheldor'
p500
aS'Nuria Calvet'
p501
aS'Kem Cook'
p502
aS'Kris Davidson'
p503
aS'Michael Gladders'
p504
aS'Stanimir Metchev'
p505
aS'R. Rich'
p506
aS'Linda Smith'
p507
aS'Mark Swain'
p508
aS'Rodger Thompson'
p509
aS'David Carter'
p510
aS'Anthony Gonzalez'
p511
aS'Konrad Kuijken'
p512
aS'Alain Lecavelier des Etang'
p513
aS'Mark Whittle'
p514
aS'Jean-Paul Kneib'
p515
aS'Weidong Li'
p516
aS"John O'Meara"
p517
aS'Henrique Schmitt'
p518
aS'Graham Smith'
p519
aS'Lifan Wang'
p520
aS'Gary Wegner'
p521
aS'Peter Garnavich'
p522
aS'Kelsey Johnson'
p523
aS'Jean-Francois Lestrade'
p524
aS'Armin Rest'
p525
aS'Sylvain Veilleux'
p526
aS'David Bersier'
p527
aS'Julianne Dalcanton'
p528
aS'Wendy Freedman'
p529
aS'Giampaolo Piotto'
p530
aS'Frederic Pont'
p531
aS'John Stocke'
p532
aS'Wei-Chun Jao'
p533
aS'John Subasavage'
p534
aS'Stefan Jordan'
p535
aS'Jack Baldwin'
p536
aS'Bruce Balick'
p537
aS'Dinshaw Balsara'
p538
aS'Karen Bjorkman'
p539
aS'Rychard Bouwens'
p540
aS'Marusa Bradac'
p541
aS'Rosanne Di Stefano'
p542
aS'Kristoffer Eriksen'
p543
aS'Harry Ferguson'
p544
aS'Kajal Ghosh'
p545
aS'Theodore Gull'
p546
aS'Graham Harper'
p547
aS'D. Hillier'
p548
aS'Patrik Jonsson'
p549
aS'Kyoung-Soo Lee'
p550
aS'Aigen Li'
p551
aS'Jifeng Liu'
p552
aS'Lucimara Martins'
p553
aS'Richard Massey'
p554
aS'Jason Melbourne'
p555
aS'Ken-Ichi Nishikawa'
p556
aS'Anne Pellerin'
p557
aS'Alice Quillen'
p558
aS'Robert Rubin'
p559
aS'Russell Ryan'
p560
aS'Steinn Sigurdsson'
p561
aS'Ulysses Sofia'
p562
aS'John Tonry'
p563
aS'Michele Trenti'
p564
aS'Yogesh Wadadekar'
p565
aS'Bart Wakker'
p566
aS'Liliya Williams'
p567
aS'Jong-Hak Woo'
p568
aS'Dennis Zaritsky'
p569
aS'Peter McCullough'
p570
aS'Carolyn Brinkworth'
p571
aS'Zoltan Balog'
p572
aS'Deepto Chakrabarty'
p573
aS'Peter Eisenhardt'
p574
aS'Lori Lubin'
p575
aS'Michael Bode'
p576
aS'Alan Welty'
p577
aS'Albert Kong'
p578
aS'John Hughes'
p579
aS'W. Dixon'
p580
aS'David Golimowski'
p581
aS'J. Westphal'
p582
aS'George Chapman'
p583
aS'Gisella Clementini'
p584
aS'Patrick Cote'
p585
aS'Andrew Levan'
p586
aS'Esther Hu'
p587
aS'Jianyang Li'
p588
aS'Stephan McCandliss'
p589
aS'Bernard McNamara'
p590
aS'Gerhardt Meurer'
p591
aS'Christopher Russell'
p592
aS'David Sing'
p593
aS'Q. Wang'
p594
aS'Tyler Bourke'
p595
aS'Kristin Chiboucas'
p596
aS'David Fisher'
p597
aS'Enrico Held'
p598
aS'Walter Jaffe'
p599
aS'Markus Janson'
p600
aS'Saurabh Jha'
p601
aS'Karen Knierman'
p602
aS'Mariska Kriek'
p603
aS'Ian Smith'
p604
aS'Kurtis Williams'
p605
aS'Andrew Baker'
p606
aS'Eiichi Egami'
p607
aS'James Graham'
p608
aS'Bruce Macintosh'
p609
aS'Marshall Perrin'
p610
aS'Joseph Rhee'
p611
aS'Johan Richard'
p612
aS'Alicia Soderberg'
p613
aS'David Weintraub'
p614
aS'Josh Winn'
p615
aS'Sahar Allam'
p616
aS'Bernhard Brandl'
p617
aS'Emanuele Daddi'
p618
aS'Patrick Hartigan'
p619
aS'Crystal Martin'
p620
aS'Joachim Saur'
p621
aS'Brian Siana'
p622
aS'Wei-Hao Wang'
p623
aS'Haojing Yan'
p624
aS'Douglas Clowe'
p625
aS'Lee Hartmann'
p626
aS'Nitya Kallivayalil'
p627
aS'James Muzerolle'
p628
aS'Stephen Zepf'
p629
aS'Gerard van Belle'
p630
aS'John Wisniewski'
p631
aS'Alessandro Capetti'
p632
aS'Jeff Cooke'
p633
aS'Michael Eracleous'
p634
aS'Roger Romani'
p635
aS'Jacob Albretsen'
p636
aS'Travis Barman'
p637
aS'Eugene Chiang'
p638
aS'Asantha Cooray'
p639
aS'D. Crenshaw'
p640
aS'Peter Edmonds'
p641
aS'Steven Federman'
p642
aS'Steven Finkelstein'
p643
aS'Elena Gallo'
p644
aS'Eric Gawiser'
p645
aS'Fabio Governato'
p646
aS'James Herald'
p647
aS'Rolf Jansen'
p648
aS'Jin Koda'
p649
aS'Marc Kuchner'
p650
aS'Nicolas Lehner'
p651
aS'Douglas Lin'
p652
aS'Piero Madau'
p653
aS'Derck Massa'
p654
aS'Philip Massey'
p655
aS'Dave Meyer'
p656
aS'Krister Nielsen'
p657
aS'Laura Penny'
p658
aS'Vicki Sarajedini'
p659
aS'Edward Sion'
p660
aS'Tracy Smith'
p661
aS'Rogier Windhorst'
p662
aS'Roger Blandford'
p663
aS'Jacob Bean'
p664
aS'Agustin Sanchez-Lavega'
p665
aS'Tomas Dahlen'
p666
aS'Philip James'
p667
aS'Harald Kuntschner'
p668
aS'Ilana Dashevsky'
p669
aS'Daniel Patnaude'
p670
aS'Sarah Gallagher'
p671
aS'Alan Marscher'
p672
aS'Edward Kimmer'
p673
aS'Art Bradley'
p674
aS'Brian Clapp'
p675
aS'Mary Elizabeth Kaiser'
p676
aS'Ray Weymann'
p677
aS'Daniel Lennon'
p678
aS'Elizabeth Barker'
p679
aS'Sylvia Baggett'
p680
aS'Howard Bushouse'
p681
aS'George Hartig'
p682
aS'Bryan Hilbert'
p683
aS'Larry Petro'
p684
aS'Andre Martel'
p685
aS'Jason Kalirai'
p686
aS'John MacKenty'
p687
aS'David Sahnow'
p688
aS'David Soderblom'
p689
aS'Parviz Ghavamian'
p690
aS'Thomas Ake'
p691
aS'Ed Smith'
p692
aS'John Hutchings'
p693
aS'Carl Biagetti'
p694
aS'James Green'
p695
aS'Peter Jonker'
p696
aS'Adam Kraus'
p697
aS'Ben Davies'
p698
aS'S Megeath'
p699
aS'Joshua Bloom'
p700
aS'Garth Illingworth'
p701
aS'Sebastien Lepine'
p702
aS'Jonathan Nichols'
p703
aS'Jean-Michel Desert'
p704
aS'Stephen Maran'
p705
aS'Lars Bildsten'
p706
aS'Andrew Blain'
p707
aS'Neil Crighton'
p708
aS'Aaron Dotter'
p709
aS'Raphael Gavazzi'
p710
aS'Aki Roberge'
p711
aS'Jason Tumlinson'
p712
aS'Richard Wade'
p713
aS'Benjamin Weiner'
p714
aS'Jennifer Andrews'
p715
aS'Thomas Bethell'
p716
aS'Julio Chaname'
p717
aS'Ann Marie Cody'
p718
aS'Sergio Dieterich'
p719
aS'Tracy Huard'
p720
aS'Adam Jensen'
p721
aS'William Keel'
p722
aS'Heather Knutson'
p723
aS'Gloria Koenigsberger'
p724
aS'Stefanie Komossa'
p725
aS'Ivan Hubeny'
p726
aS'Gijs Nelemans'
p727
aS'Eva Noyola'
p728
aS'Carmen Sanchez Contreras'
p729
aS'Fabian Walter'
p730
aS'Mark Westmoquette'
p731
aS'Yangsen Yao'
p732
aS'Ann Zabludoff'
p733
aS'P. Winkler'
p734
aS'Francesca Bacciotti'
p735
aS'Mark Brodwin'
p736
aS'Adam Burgasser'
p737
aS'Anna Frebel'
p738
aS'Holly Maness'
p739
aS'Justyn Maund'
p740
aS'Jane Rigby'
p741
aS'Michael Jura'
p742
aS'Graeme Smith'
p743
aS'Micaela Stumpf'
p744
aS'Ming Sun'
p745
aS'Roeland van der Marel'
p746
aS'Marten van Kerkwijk'
p747
aS'Brian Espey'
p748
aS'John Krist'
p749
aS'David Law'
p750
aS'Albert Boggess'
p751
aS'Brian Chaboyer'
p752
aS'Fred Hamann'
p753
aS'Christopher Johns-Krull'
p754
aS'Morten Andersen'
p755
aS'Stephen Cenko'
p756
aS'Patrick Dufour'
p757
aS'Jon Holtzman'
p758
aS'Filippo Mannucci'
p759
aS'Gabor Worseck'
p760
aS'Manuel Bautista'
p761
aS'Joel Berge'
p762
aS'Anca Constantin'
p763
aS'Jeffrey Linsky'
p764
aS'Nick Devereux'
p765
aS'Joseph Hahn'
p766
aS'Lisa Kewley'
p767
aS'Carlos Lousto'
p768
aS'Danilo Marchesini'
p769
aS'Eran Ofek'
p770
aS'Rachel Osten'
p771
aS'Imants Platais'
p772
aS'J. Shull'
p773
aS'Phillip Stancil'
p774
aS'David Strickland'
p775
aS'Stefan Umbreit'
p776
aS'Enrico Vesperini'
p777
aS'Elena Sabbi'
p778
aS'Anthony Colaprete'
p779
aS'Mario Livio'
p780
aS'David Ehrenreich'
p781
aS'David Leckrone'
p782
aS'Preeti Kharb'
p783
aS'T. Turner'
p784
aS'Mark Birkinshaw'
p785
aS'Andrea Prestwich'
p786
aS'Martin Elvis'
p787
aS'John Brandt'
p788
aS'John Mulchaey'
p789
aS'Michael Wolfe'
p790
aS'Dennis Ebbets'
p791
aS'John Trauger'
p792
aS'Aparna Maybhate'
p793
aS'Norman Grogin'
p794
aS'Edward Beaver'
p795
aS'Cristina Oliveira'
p796
aS'Tiffany Borders'
p797
aS'Abhijith Rajan'
p798
aS'Mike Wong'
p799
aS'Susana Deustua'
p800
aS'Kenneth Carpenter'
p801
aS'Michael Regan'
p802
aS'Darin Ragozzine'
p803
aS'Karen Meech'
p804
aS'Bringfried Stecklum'
p805
aS'Drake Deming'
p806
aS'Andrew Smith'
p807
aS'Anja von der Linden'
p808
aS'Michael Corcoran'
p809
aS'Suvi Gezari'
p810
aS'Christy Tremonti'
p811
aS'Will Clarkson'
p812
aS'Jelle Kaastra'
p813
aS'David Jewitt'
p814
aS'Marc Postman'
p815
aS'Ilaria Pascucci'
p816
aS'Steven Osterman'
p817
aS'Michael Dulude'
p818
aS'Andrew Drake'
p819
aS'Mansi Kasliwal'
p820
aS'Li-Hsin Chien'
p821
aS'Vandana Desai'
p822
aS'Aaron Grocholski'
p823
aS'Eric Hallman'
p824
aS'Myungkook Jee'
p825
aS'Eric Jullo'
p826
aS'Catherine Kaleida'
p827
aS'Alexander Kashlinsky'
p828
aS'Chung-Pei Ma'
p829
aS'Kentaro Nagamine'
p830
aS'Jason Nordhaus'
p831
aS'Mark Norris'
p832
aS'Eliot Quataert'
p833
aS'Gregory Rudnick'
p834
aS'Hilke Schlichting'
p835
aS'Risa Wechsler'
p836
aS'Susan Benecchi'
p837
aS'Zhiyuan Li'
p838
aS'Tom Marsh'
p839
aS'Jean-Claude Bouret'
p840
aS'John Cannon'
p841
aS'Tuan Do'
p842
aS'Jenny Greene'
p843
aS'Hans Guenther'
p844
aS'Jay Holberg'
p845
aS'Jae-Woo Lee'
p846
aS'Mattia Negrello'
p847
aS'Masamune Oguri'
p848
aS'David Radburn-Smith'
p849
aS'Christian Schneider'
p850
aS'Greg Schwarz'
p851
aS'Christopher Thom'
p852
aS'Carles Badenes'
p853
aS'John Bochanski'
p854
aS'Sara Ellison'
p855
aS'Steve Howell'
p856
aS'Philip Lucas'
p857
aS'Antonino Milone'
p858
aS'Rupal Mittal'
p859
aS'Norbert Przybilla'
p860
aS'Robert Quimby'
p861
aS'Naveen Reddy'
p862
aS'Ansgar Reiners'
p863
aS'Wesley Fraser'
p864
aS'Richard McDermid'
p865
aS'Alec Boksenberg'
p866
aS'John Bally'
p867
aS'Zach Berta-Thompson'
p868
aS'Adrienne Cool'
p869
aS'Trent Dupuy'
p870
aS'Sean Farrell'
p871
aS'Leo Girardi'
p872
aS'Karl Gordon'
p873
aS'Roderick Johnstone'
p874
aS'Toru Misawa'
p875
aS'Simon Morris'
p876
aS'Masami Ouchi'
p877
aS'Anna Quider'
p878
aS'Ian Roederer'
p879
aS'Claudia Scarlata'
p880
aS'Sangmo Sohn'
p881
aS'F. Macchetto'
p882
aS'Mark Clampin'
p883
aS'Ann Boesgaard'
p884
aS'Eric Monier'
p885
aS'Cesare Barbieri'
p886
aS'Daniel Apai'
p887
aS'Linhua Jiang'
p888
aS'J. Kirkpatrick'
p889
aS'Alex Viana'
p890
aS'Peter Jakobsen'
p891
aS'Craig Mackay'
p892
aS'Yue Shen'
p893
aS'James Reeves'
p894
aS'Junfeng Wang'
p895
aS'Francesca Civano'
p896
aS'R. Morris'
p897
aS'Giuseppina Fabbiano'
p898
aS'Hua Feng'
p899
aS'Vinay Kashyap'
p900
aS'William Dawson'
p901
aS'Patrizia Caraveo'
p902
aS'Pey Lian Lim'
p903
aS'Elena Mason'
p904
aS'Kandis Jessup'
p905
aS'Andrei Lobanov'
p906
aS'Jean-Michel Deharveng'
p907
aS'Kevin France'
p908
aS'Paul Crowther'
p909
aS'Sanchayeeta Borthakur'
p910
aS'Dawn Erb'
p911
aS'Fredrick High'
p912
aS'Jeff Cuzzi'
p913
aS'Chris Carilli'
p914
aS'Carrie Bridge'
p915
aS'Juan Madrid'
p916
aS'Robert Mathieu'
p917
aS'Ian McGreer'
p918
aS'Ran Wang'
p919
aS'Sungryong Hong'
p920
aS'Sugata Kaviraj'
p921
aS'Steven Penton'
p922
aS'Martin Guerrero'
p923
aS'Luc Binette'
p924
aS'William Blair'
p925
aS'Dougal Mackey'
p926
aS'Quentin Parker'
p927
aS'Xin Liu'
p928
aS'Nicolas Bouche'
p929
aS'Charlie Conroy'
p930
aS'Katherine Alatalo'
p931
aS'Francesco Paresce'
p932
aS'Varsha Kulkarni'
p933
aS'Nils Bergvall'
p934
aS'Theo Kamperman'
p935
aS'Theodore Snow'
p936
aS'Michael Cushing'
p937
aS'Michael Cooper'
p938
aS'Gerd Weigelt'
p939
aS'Johan Fynbo'
p940
aS'Timothy Beers'
p941
aS'Kayhan Gultekin'
p942
aS'N. Forster Schreiber'
p943
aS'Joanna Holt'
p944
aS'Alvio Renzini'
p945
aS'Julia Roman-Duval'
p946
aS'Ariel Goobar'
p947
aS'Matthew Hayes'
p948
aS'Amy Reines'
p949
aS'Sara Petty'
p950
aS'Miriam Garcia'
p951
aS'Noel Richardson'
p952
aS'Casey Papovich'
p953
aS'Ryan Foley'
p954
aS'Daniel Nestor'
p955
aS'Brian Wood'
p956
aS'Laurent Lamy'
p957
aS'Andrew Fox'
p958
aS'Martin Barstow'
p959
aS'Moire Prescott'
p960
aS'Stephen Ridgway'
p961
aS'Orly Gnat'
p962
aS'Olivier Schnurr'
p963
aS'Thomas Harrison'
p964
aS'Philip Rosenfield'
p965
aS'Cesar Fuentes'
p966
aS'Daniel Weisz'
p967
aS'Caitlin Griffith'
p968
aS'Vardha Bennert'
p969
aS'Erica Rodgers'
p970
aS'J. Blades'
p971
aS'Christine Chen'
p972
aS'Alyson Brooks'
p973
aS'Gurtina Besla'
p974
aS'Fabio De Colle'
p975
aS'Charles Danforth'
p976
aS'Matthew Pieri'
p977
aS'Arthur Wolfe'
p978
aS'Anatoly Klypin'
p979
aS'Jessica Evans'
p980
aS'Remi Soummer'
p981
aS'Steven Allen'
p982
aS'Joaquin Vieira'
p983
aS'Rudolf Albrecht'
p984
aS'Bruce McCollum'
p985
aS'Janice Lee'
p986
aS'Matt McMaster'
p987
aS'SVEA HERNANDEZ'
p988
aS'Justin Ely'
p989
aS'Fabien Grise'
p990
aS'Martin Weisskopf'
p991
aS'Craig Heinke'
p992
aS'Julia Comerford'
p993
aS'Pasquale Mazzotta'
p994
aS'Jimmy Irwin'
p995
aS'Bret Lehmer'
p996
aS'Kip Kuntz'
p997
aS'Paule Sonnentrucker'
p998
aS'Chris Long'
p999
aS'K. Azalee Bostroem'
p1000
aS'Matthew Knight'
p1001
aS'Frederic Vincent'
p1002
aS'Zolt Levay'
p1003
aS'Brian Schmidt'
p1004
aS'Philip Armitage'
p1005
aS'David Syphers'
p1006
aS'J. Wheeler'
p1007
aS'Jonathan Trump'
p1008
aS'Nadia Zakamska'
p1009
aS'Susan Kassin'
p1010
aS'Sourav Chatterjee'
p1011
aS'Benjamin Williams'
p1012
aS'Michael Boylan-Kolchin'
p1013
aS'Jeremy Bailin'
p1014
aS'Ralf Kotulla'
p1015
aS'Benjamin Oppenheimer'
p1016
aS'Tae-Sun Kim'
p1017
aS'Andrea Bellini'
p1018
aS'Frantz Martinache'
p1019
aS'John Caldwell'
p1020
aS'Patrick Kelly'
p1021
aS'Geoffrey Bryden'
p1022
aS'Rachel Mandelbaum'
p1023
aS'Martha Boyer'
p1024
aS'Amy Furniss'
p1025
aS'David Buote'
p1026
aS'Ulrich Heber'
p1027
aS'Mark Swinbank'
p1028
aS'Thierry Lanz'
p1029
aS'Rodolfo Angeloni'
p1030
aS'Lindsay King'
p1031
aS'Nicola Da Rio'
p1032
aS'Beth Biller'
p1033
aS'David Floyd'
p1034
aS'Ravi Sankrit'
p1035
aS'Sherry Suyu'
p1036
aS'Eliot Young'
p1037
aS'Alexandra Veledina'
p1038
aS'Peter Wheatley'
p1039
aS'Andras Gaspar'
p1040
aS'Andrew Newman'
p1041
aS'Alaina Henry'
p1042
aS'Judith Provencal'
p1043
aS'Ian Stephens'
p1044
aS'Eilat Glikman'
p1045
aS'Yujin Yang'
p1046
aS'Katelyn Allers'
p1047
aS'Rollin Thomas'
p1048
aS'Daniel Perley'
p1049
aS'Aida Wofford'
p1050
aS'Norbert Schartel'
p1051
aS'Catherine Huitson'
p1052
aS'Andreas Kuepper'
p1053
aS'Nicolas Tejos'
p1054
aS'Yoshiaki Ono'
p1055
aS'Tracy Beck'
p1056
aS'Marina Rejkuba'
p1057
aS'Abhijit Saha'
p1058
aS'Edward Groth'
p1059
aS'Christopher Gelino'
p1060
aS'Curtis McCully'
p1061
aS'Matthew Mechtley'
p1062
aS'Simon Lilly'
p1063
aS'Ivana Damjanov'
p1064
aS'Thomas Maccarone'
p1065
aS'Kohji Tsumura'
p1066
aS'Ofer Yaron'
p1067
aS'Ignazio Pillitteri'
p1068
aS'Saul Rappaport'
p1069
aS'Adam Muzzin'
p1070
aS'Veronica Strazzullo'
p1071
aS'Michael McDonald'
p1072
aS'Jose Prieto'
p1073
aS'Rik Williams'
p1074
aS'Lee Armus'
p1075
aS'Guido De Marchi'
p1076
aS'Fabio Bresolin'
p1077
aS'Michael Strauss'
p1078
aS'Jon Mauerhan'
p1079
aS'Sarah Badman'
p1080
aS'Richard Mushotzky'
p1081
aS'Chris Simpson'
p1082
aS'Bethan James'
p1083
aS'Paul Dobbie'
p1084
aS'Jessica Lu'
p1085
aS'Jay Strader'
p1086
aS'Remco van den Bosch'
p1087
aS''
p1088
aS'Stefi Baum'
p1089
aS'Matthew Bourque'
p1090
aS'William Baity'
p1091
aS'Natalie Gosnell'
p1092
aS'Randall Smith'
p1093
aS'Jon Miller'
p1094
aS'Robin Barnard'
p1095
aS'William Brandt'
p1096
aS'Michael Nolan'
p1097
aS'Steven Shore'
p1098
aS'Audrey DiFelice'
p1099
aS'Stephen Holland'
p1100
aS'Sara Ogaz'
p1101
aS'Heather Gunning'
p1102
aS'David Hickey'
p1103
aS'Michael Wenz'
p1104
aS'John Bacinski'
p1105
aS'Sean Lockwood'
p1106
aS'Joshua Adams'
p1107
aS'Nicholas Bond'
p1108
aS'Larry Bradley'
p1109
aS'Benjamin Cain'
p1110
aS'John Chisholm'
p1111
aS'David Hogg'
p1112
aS'Mark Krumholz'
p1113
aS'Francisco Mueller-Sanchez'
p1114
aS"Brian O'Shea"
p1115
aS'Thomas Quinn'
p1116
aS'Anna Rosen'
p1117
aS'Eric Schindhelm'
p1118
aS'Allen Shafter'
p1119
aS'David Wake'
p1120
aS'Jessica Werk'
p1121
aS'Esther Buenzli'
p1122
aS'Sebastiano Cantalupo'
p1123
aS'Xinyu Dai'
p1124
aS'Rick Edelson'
p1125
aS'Ori Fox'
p1126
aS'Stephan Geier'
p1127
aS'Masao Hayashi'
p1128
aS'Remy Indebetouw'
p1129
aS'Anne Jaskot'
p1130
aS'Alexander Karim'
p1131
aS"Paul O'Brien"
p1132
aS'Richard Plotkin'
p1133
aS'Jacqueline Radigan'
p1134
aS'Kate Rubin'
p1135
aS'Robert Simcoe'
p1136
aS'Grant Tremblay'
p1137
aS'Carolin Villforth'
p1138
aS'Gillian Wilson'
p1139
aS'Ming Zhao'
p1140
aS'Yicheng Guo'
p1141
aS'Danielle Berg'
p1142
aS'Mederic Boquien'
p1143
aS'Dan Coe'
p1144
aS'Alexandros Gianninas'
p1145
aS'pierre guillard'
p1146
aS'Adam Kowalski'
p1147
aS'Davor Krajnovic'
p1148
aS'Ragnhild Lunnan'
p1149
aS'Eileen Meyer'
p1150
aS'Laurent Pueyo'
p1151
aS'Jeffrey Rich'
p1152
aS'Lorenz Roth'
p1153
aS'Keren Sharon'
p1154
aS'Kevin Stevenson'
p1155
aS'David Wittman'
p1156
aS'Iair Arcavi'
p1157
aS'Amy Bonsor'
p1158
aS'Martin Cordiner'
p1159
aS'Iskren Georgiev'
p1160
aS'Ana Gomez de Castro'
p1161
aS'Kristen McQuinn'
p1162
aS'Andrea Mehner'
p1163
aS'Dan Milisavljevic'
p1164
aS'Michael Nowak'
p1165
aS'Dominik Riechers'
p1166
aS'Steven Rodney'
p1167
aS'Claes Fransson'
p1168
aS'Nicolas Grosso'
p1169
aS'Cristina Pallanca'
p1170
aS'Wiphu Rujopakarn'
p1171
aS'Tim Schrabback'
p1172
aS'Kartik Sheth'
p1173
aS'Guillermo Barro'
p1174
aS'Madelon Bours'
p1175
aS'Rebecca Canning'
p1176
aS'Ryan Cooke'
p1177
aS'Romano Corradi'
p1178
aS'Gaston Folatelli'
p1179
aS'Margherita Giustini'
p1180
aS'Sandra Greiss'
p1181
aS'Wolfgang Kerzendorf'
p1182
aS'Tiffany Meshkat'
p1183
aS'matteo monelli'
p1184
aS'Rachael Tomasino'
p1185
aS'Selma de Mink'
p1186
aS'Pierre Kervella'
p1187
aS'John Troeltzsch'
p1188
aS'Emily Levesque'
p1189
aS'Britt Lundgren'
p1190
aS'Michael Salz'
p1191
aS'Andrew Steffl'
p1192
aS'Steven Chesley'
p1193
aS'Britney Schmidt'
p1194
aS'Belinda Wilkes'
p1195
aS'Diana Worrall'
p1196
aS'Steven Kraemer'
p1197
aS'Marianne Heida'
p1198
aS'Florian Pacaud'
p1199
aS'Breanna Binder'
p1200
aS'Hugues Sana'
p1201
aS'Roberto Avila'
p1202
aS'Yael Naze'
p1203
aS'Matthew Bayliss'
p1204
aS'Peter Capak'
p1205
aS'Gaspard Duchene'
p1206
aS'Jeyhan Kartaltepe'
p1207
aS'Karin Sandstrom'
p1208
aS'Matthew Auger'
p1209
aS'Bjoern Benneke'
p1210
aS'Alessandra Beifiori'
p1211
aS'Marco Castellano'
p1212
aS'Aleksandar Diamond-Stanic'
p1213
aS'Tanio Diaz-Santos'
p1214
aS'vianney Lebouteiller'
p1215
aS'Joseph Lyman'
p1216
aS'Nicolas Martin'
p1217
aS'Carl Melis'
p1218
aS'Chris Mihos'
p1219
aS'Lida Oskinova'
p1220
aS'Steven Parsons'
p1221
aS'Jennifer Patience'
p1222
aS'Joshua Peek'
p1223
aS'Suzanna Randall'
p1224
aS'Nicole Reindl'
p1225
aS'Adam Ritchey'
p1226
aS'Kunio Sayanagi'
p1227
aS'Bruno Sicardy'
p1228
aS'Stephen Skinner'
p1229
aS'Jennifer Sokoloski'
p1230
aS'Julie Wardlow'
p1231
aS'David Wilson'
p1232
aS'Robert Benjamin'
p1233
aS'Ernst de Mooij'
p1234
aS'Bruce Elmegreen'
p1235
aS'Andy Lawrence'
p1236
aS'Adam Leroy'
p1237
aS'Anna Nierenberg'
p1238
aS'Celine Peroux'
p1239
aS'Veronique Petit'
p1240
aS'David Sand'
p1241
aS'Benjamin Shappee'
p1242
aS'Edward Shaya'
p1243
aS'Daniel Stern'
p1244
aS'Jonathan Tan'
p1245
aS'Trinh Thuan'
p1246
aS'Erik Tollerud'
p1247
aS'Matthew Walker'
p1248
aS'Tracy Webb'
p1249
aS'Jeremy Drake'
p1250
aS'Andreas Koch'
p1251
aS'Catherine Espaillat'
p1252
aS'Rebecca Bowler'
p1253
aS'Or Graur'
p1254
aS'C Jeffery'
p1255
aS'Melissa McGrath'
p1256
aS'Kurt Retherford'
p1257
aS'Elisa Costantini'
p1258
aS'Jacobo Ebrero'
p1259
aS'Anna Lia Longinotti'
p1260
aS'Giovanni Miniutti'
p1261
aS'Zheng Cai'
p1262
aS'Raphael Gobat'
p1263
aS'Xuan Fang'
p1264
aS'Emanuele Farina'
p1265
aS'alexandre gallenne'
p1266
aS'Michael Koss'
p1267
aS'Rongmon Bordoloi'
p1268
aS'Elodie Choquet'
p1269
aS'Denija Crnojevic'
p1270
aS'Annalisa De Cia'
p1271
aS'Luca Fossati'
p1272
aS'Mario Gennaro'
p1273
aS'Dale Kocevski'
p1274
aS'Pascal Oesch'
p1275
aS'Greg Snyder'
p1276
aS'Monica Valluri'
p1277
aS'Joseph Burchett'
p1278
aS'John Wise'
p1279
aS'Andrew Benson'
p1280
aS'Annalisa Pillepich'
p1281
aS'Nathan Kaib'
p1282
aS'Guy Worthey'
p1283
aS'Morgan Fouesneau'
p1284
aS'Matthew McQuinn'
p1285
aS'Desika Narayanan'
p1286
aS'John Forbes'
p1287
aS'Aaron Geller'
p1288
aS'Massimo Meneghetti'
p1289
aS'Eric Blackman'
p1290
aS'Cameron Hummels'
p1291
aS'Caroline Morley'
p1292
aS'Molly Peeples'
p1293
aS'Yu Lu'
p1294
aS'Mark Fardal'
p1295
aS'Maureen Teyssier'
p1296
aS'Brice-Olivier Demory'
p1297
aS'Carey Lisse'
p1298
aS'Matt Brorby'
p1299
aS'Eleonora TROJA'
p1300
aS'Mark Peacock'
p1301
aS'Roopesh Ojha'
p1302
aS'Cristian Saez'
p1303
aS'David Borncamp'
p1304
aS'Joanna Taylor'
p1305
aS'Meredith Durbin'
p1306
aS'Harish Khandrika'
p1307
aS'Ariel Bowers'
p1308
aS'Catherine Gosmeyer'
p1309
aS'Franz Bauer'
p1310
aS'Sarah Burke-Spolaor'
p1311
aS'Laura Kreidberg'
p1312
aS'Ehud Behar'
p1313
aS'Angela Adamo'
p1314
aS'Chris Ahn'
p1315
aS'Robert Barrows'
p1316
aS'Philip Bennett'
p1317
aS'Roger Cohen'
p1318
aS'Jonathan Hargis'
p1319
aS'Dan Maoz'
p1320
aS'Ismael Perez-Fournon'
p1321
aS'Philipp Richter'
p1322
aS'Eros Vanzella'
p1323
aS'Paul Wilson'
p1324
aS'Vincent Bourrier'
p1325
aS'Tom Evans'
p1326
aS'John Salzer'
p1327
aS'Siyi Xu'
p1328
aS'Jarle Brinchmann'
p1329
aS'Edward Cackett'
p1330
aS'Lise Christensen'
p1331
aS'James Colbert'
p1332
aS'Matteo Correnti'
p1333
aS'Matt Darnley'
p1334
aS'Zachary Edwards'
p1335
aS'Michele Fumagalli'
p1336
aS'Mark Hollands'
p1337
aS'Ivana Orlitova'
p1338
aS'David Polishook'
p1339
aS'Swara Ravindranath'
p1340
aS'Gordon Richards'
p1341
aS'Lorrie Straka'
p1342
aS'Loic Albert'
p1343
aS'Peter Brown'
p1344
aS'Hui Dong'
p1345
aS'Morgan Fraser'
p1346
aS'Katja Poppenhaeger'
p1347
aS'Mickael Rigault'
p1348
aS'Stella Seitz'
p1349
aS'Daniel Stark'
p1350
aS'Hannah Wakeford'
p1351
aS'Eva Wuyts'
p1352
aS'Guangtun Zhu'
p1353
aS'Brendan Bowler'
p1354
aS'Chun-Fan Liu'
p1355
aS'Blagoy Rangelov'
p1356
aS'David Rupke'
p1357
aS'Heddy Arab'
p1358
aS'Vivienne Baldassare'
p1359
aS'Michal Drahus'
p1360
aS'John Gizis'
p1361
aS'Christian Johnson'
p1362
aS'Jingzhe Ma'
p1363
aS'James Miller-Jones'
p1364
aS'Russell Smith'
p1365
aS'Pier-Emmanuel Tremblay'
p1366
aS'Ignacio Trujillo'
p1367
aS'Brenda Frye'
p1368
aS'Mark Reynolds'
p1369
aS'Adam Schneider'
p1370
aS'Joshua Simon'
p1371
aS'Deirdre Coffey'
p1372
aS'Katalin Takats'
p1373
aS'Sjoert van Velzen'
p1374
aS'Dennis Bodewits'
p1375
aS'Glenn Kacprzak'
p1376
aS'Walter Maksym'
p1377
aS'Christopher Manser'
p1378
aS'Tom Shanks'
p1379
aS'Elizabeth Stanway'
p1380
aS'Eric Bell'
p1381
aS'James Bullock'
p1382
aS'Nell Byler'
p1383
aS'Marios Chatzikos'
p1384
aS'Ena Choi'
p1385
aS'Yumi Choi'
p1386
aS'Richard Harms'
p1387
aS'Neal Dalal'
p1388
aS'Cody Dirks'
p1389
aS'Claude-Andre Faucher-Giguere'
p1390
aS'Yanga Fernandez'
p1391
aS'Alex Hill'
p1392
aS'Neal Katz'
p1393
aS'Rachael Livermore'
p1394
aS'Thomas Madura'
p1395
aS'Mireia Montes'
p1396
aS'Eric Murphy'
p1397
aS'Siang Oh'
p1398
aS'Alex Parker'
p1399
aS'Jan-Torge Schindler'
p1400
aS'Devin Silvia'
p1401
aS'Elisa Toloba'
p1402
aS'Margaret Turnbull'
p1403
aS'Laura Watkins'
p1404
aS'John Pineda'
p1405
aS'Yi Yang'
p1406
aS'Laura Chomiuk'
p1407
aS'Julie Hlavacek-Larrondo'
p1408
aS'Roberto Assef'
p1409
aS'Brian Williams'
p1410
aS'Lucas Johnson'
p1411
aS'Zhichao Xue'
p1412
aS'Varun Bajaj'
p1413
aS'Catherine Martlin'
p1414
aS'TalaWanda Monroe'
p1415
aS'Gisella De Rosa'
p1416
aS'N.P.M Kuin'
p1417
aS'Diana Dragomir'
p1418
aS'Erik Petigura'
p1419
aS'Mercedes Lopez-Morales'
p1420
aS'Carlo Manara'
p1421
aS'Wolf-Rainer Hamann'
p1422
aS'Kenneth Chambers'
p1423
aS'Bernd Husemann'
p1424
aS'David Sobral'
p1425
aS'Renske Smit'
p1426
aS'Julien de Wit'
p1427
aS'Hyosun Kim'
p1428
aS'Blair Porterfield'
p1429
aS'Mees Fix'
p1430
aS'Javier Licandro'
p1431
aS'Ben Sunnquist'
p1432
aS'Nicholas Earl'
p1433
aS'Samuel Factor'
p1434
aS'Shy Genel'
p1435
aS'Yashar Hezaveh'
p1436
aS'Jason Jaacks'
p1437
aS'Noe Kains'
p1438
aS'Wladimir Lyra'
p1439
aS'Morgan MacLeod'
p1440
aS'Luke Moore'
p1441
aS'Marc Rafelski'
p1442
aS'Laura Sales'
p1443
aS'Gonzalo Tancredi'
p1444
aS'Rich Bielby'
p1445
aS'Brooke Simmons'
p1446
aS'Tracy Becker'
p1447
aS'Elisabeth Newton'
p1448
aS'Simon Porter'
p1449
aS'Jessica Spake'
p1450
aS'Ryan Trainor'
p1451
aS'Jason Wang'
p1452
aS'Katherine Whitaker'
p1453
aS'Mike Anderson'
p1454
aS'Hector Arce'
p1455
aS'Mary Barsony'
p1456
aS'Thomas Collett'
p1457
aS'Yuri Izotov'
p1458
aS'James Lowenthal'
p1459
aS'Sowgat Muzahid'
p1460
aS'Thomas Beatty'
p1461
aS'Wen-fai Fong'
p1462
aS'Clemence Fontanive'
p1463
aS'JJ Hermes'
p1464
aS'Andrea Banzatti'
p1465
aS'Brian Mazur'
p1466
aS'Francesca Annibali'
p1467
aS'George Becker'
p1468
aS'Philip Best'
p1469
aS'Doron Chelouche'
p1470
aS'Steve Croft'
p1471
aS'Emanuele Dalessandro'
p1472
aS'Nathalie Degenaar'
p1473
aS'Pierre-Alain Duc'
p1474
aS'Andrew Goulding'
p1475
aS'James Hogg'
p1476
aS'Luke Hovey'
p1477
aS'Flavien Kiefer'
p1478
aS'Mukremin Kilic'
p1479
aS'Jiri Krticka'
p1480
aS'Guilin Liu'
p1481
aS'Daniel Marrone'
p1482
aS'Ignacio Negueruela'
p1483
aS'Dieu Nguyen'
p1484
aS'Matt Nicholl'
p1485
aS'Daeseong Park'
p1486
aS'Bettina Posselt'
p1487
aS'Brant Robertson'
p1488
aS'Aaron Romanowsky'
p1489
aS'Mischa Schirmer'
p1490
aS'Tao Wang'
p1491
aS'Fakhri Zahedy'
p1492
aS'Melissa Graham'
p1493
aS'Lorenzo Pino'
p1494
aS'Evgenya Shkolnik'
p1495
aS'Justin Linford'
p1496
aS'Jessica Agarwal'
p1497
aS'Frank Crary'
p1498
aS'Ian Crossfield'
p1499
aS'Nao Suzuki'
p1500
aS'Shriharsh Tendulkar'
p1501
aS'Allyssa Riley'
p1502
aS'Robin Laurance'
p1503
aS'Krishna Apparao'
p1504
aS'Jack Sulentic'
p1505
aS'Donald Osterbrock'
p1506
aS'Robert Antonucci'
p1507
aS'James Lequeux'
p1508
aS'Pierre Bely'
p1509
aS'William Brady'
p1510
aS'Hervey Stockman'
p1511
aS'George Null'
p1512
aS'Jeremy Mould'
p1513
aS'Rolf-Peter Kudritzki'
p1514
aS'Jay Bookbinder'
p1515
aS'Richard Schwartz'
p1516
aS'William Somerville'
p1517
aS'Paul Barr'
p1518
aS'Lewis Hobbs'
p1519
aS'Stephen Strom'
p1520
aS'Michael Dopita'
p1521
aS'Warrick Couch'
p1522
aS'Dieter Reimers'
p1523
aS'Jonathan McDowell'
p1524
aS'David Burstein'
p1525
aS'Bruce Woodgate'
p1526
aS'Jeffrey McClintock'
p1527
aS'A. Michalitsianos'
p1528
aS'Michael Friedjung'
p1529
aS'George Wallerstein'
p1530
aS'Edwin Turner'
p1531
aS'Keith Horne'
p1532
aS'Jean-Loup Bertaux'
p1533
aS'Lennox Cowie'
p1534
aS'Robert Zinn'
p1535
aS'D. MacConnell'
p1536
aS'Benjamin Zellner'
p1537
aS'Chi-Chao Wu'
p1538
aS'Kenneth Freeman'
p1539
aS'Ethan Schreier'
p1540
aS'Kurt Hunger'
p1541
aS'Robert Thomson'
p1542
aS'Susan Simkin'
p1543
aS'Kwok-yung Lo'
p1544
aS'Rosine Lallement'
p1545
aS'Richard McCray'
p1546
aS'Marie-Helene Ulrich'
p1547
aS'Sjur Refsdal'
p1548
aS'Keith Mason'
p1549
aS'S. Stern'
p1550
aS'Eric Becklin'
p1551
aS'Roger Ferlet'
p1552
aS'Cassandra Fesen'
p1553
aS'Allan Sandage'
p1554
aS'Reta Beebe'
p1555
aS'Peter Smith'
p1556
aS'Martin Tomasko'
p1557
aS'Paul Hemenway'
p1558
aS'Beverley Wills'
p1559
aS'Flavio Fusi Pecci'
p1560
aS'Wang Zhong'
p1561
aS'Donald York'
p1562
aS'Harry Shipman'
p1563
aS'John Stauffer'
p1564
aS'Martin Ward'
p1565
aS'David Sanders'
p1566
aS'H. Moos'
p1567
aS'William Romanishin'
p1568
aS'Douglas Duncan'
p1569
aS'Colin Norman'
p1570
aS'Richard Griffiths'
p1571
aS'Andrea Dupree'
p1572
aS'S. Djorgovski'
p1573
aS'Ross Cohen'
p1574
aS'Francesco Bertola'
p1575
aS'Renee Prange'
p1576
aS'Rodger Doxsey'
p1577
aS'T. Hewitt'
p1578
aS'Jim Secosky'
p1579
aS'Peter Kandefer'
p1580
aS'Ray Sterner'
p1581
aS'Manfred Miebach'
p1582
aS'Anne Kinney'
p1583
aS'Hashima Hasan'
p1584
aS'Joe Skapik'
p1585
aS'Richard White'
p1586
aS'Christopher Burrows'
p1587
aS'Arthur Vaughan'
p1588
aS'Francis Schiffer'
p1589
aS'John Decker'
p1590
aS'H. Wood'
p1591
aS'Roberto Gilmozzi'
p1592
aS'William Ochs'
p1593
aS'Nino Panagia'
p1594
aS'Linda Abramowicz-Reed'
p1595
aS'A. Leibowitz'
p1596
aS'Robert Jedrzejewski'
p1597
aS'Lyman Spitzer'
p1598
aS'Detlev Koester'
p1599
aS'Michael Sitko'
p1600
aS'Bengt Edvardsson'
p1601
aS'Glenn Wahlgren'
p1602
aS'Pieter Van Der Kruit'
p1603
aS'Francis Graham-Smith'
p1604
aS'Cora Randall'
p1605
aS'G. Chanmugam'
p1606
aS'Robin Clegg'
p1607
aS'Donald Shemansky'
p1608
aS'Donald Ferguson'
p1609
aS'Hyron Spinrad'
p1610
aS'Ian McHardy'
p1611
aS'Adeline Caulet'
p1612
aS'J. Harrington'
p1613
aS'Pierluigi Bernacca'
p1614
aS'Laura Danly'
p1615
aS'Andrew Wilson'
p1616
aS'Theodore Simon'
p1617
aS'Cecile Gry'
p1618
aS'Francois Boulanger'
p1619
aS'Susan Neff'
p1620
aS'David Koo'
p1621
aS'Steven Kawaler'
p1622
aS'Peter Conti'
p1623
aS'Michael Rosa'
p1624
aS'Janet Wood'
p1625
aS'Anuradha Koratkar'
p1626
aS'Michal Simon'
p1627
aS'Gibor Basri'
p1628
aS'Frederick Bruhweiler'
p1629
aS'Richard Green'
p1630
aS'Harriet Dinerstein'
p1631
aS'John Kormendy'
p1632
aS'John Fitch'
p1633
aS'Mike Urban'
p1634
aS'Mario Lattanzi'
p1635
aS'Leslye Boyce'
p1636
aS'V. Balzano'
p1637
aS'Stephen Hulbert'
p1638
aS'Sergio Ilovaisky'
p1639
aS'Laurence Taff'
p1640
aS'Stephen Holt'
p1641
aS'Roland Walter'
p1642
aS'Melvin Hoare'
p1643
aS'Jason Cardelli'
p1644
aS'Vesa Junkkarinen'
p1645
aS'Kenneth Lanzetta'
p1646
aS'Erika Boehm-Vitense'
p1647
aS'Robert Kraft'
p1648
aS'Shaun Hughes'
p1649
aS'Gail Reichert'
p1650
aS'Klaas de Boer'
p1651
aS'Wallace Sargent'
p1652
aS'Zlatan Tsvetanov'
p1653
aS'Ronald Polidan'
p1654
aS'Silvia Torres-Peimbert'
p1655
aS'Jaime Esper'
p1656
aS'Alan Uomoto'
p1657
aS'George Bowen'
p1658
aS'Robert Dempsey'
p1659
aS'Jonathan Mittaz'
p1660
aS'Ewine Van Dishoeck'
p1661
aS'Lotfi Ben Jaffel'
p1662
aS'Manfred Vogel'
p1663
aS'Franklin Briggs'
p1664
aS'Larry Esposito'
p1665
aS'Mirek Plavec'
p1666
aS'Richard Robinson'
p1667
aS'Baruch Soifer'
p1668
aS'Jane Fox'
p1669
aS'Joseph Patterson'
p1670
aS'Giovanni Bignami'
p1671
aS'Christopher Anderson'
p1672
aS'Daniel Schultz'
p1673
aS'Nicole Allard'
p1674
aS'Allan Willis'
p1675
aS'Mario Perinotto'
p1676
aS'Ian Howarth'
p1677
aS'Coel Hellier'
p1678
aS'Simon Rosen'
p1679
aS'Arthur Whipple'
p1680
aS'Hollis Johnson'
p1681
aS'Amit Sen'
p1682
aS'Otto Franz'
p1683
aS'Karl Hricko'
p1684
aS'Benjamin Weiss'
p1685
aS'Harald Schenk'
p1686
aS'George Lewycky'
p1687
aS'Jim Younger'
p1688
aS'Nancy Cox'
p1689
aS'Martin Gakenheimer'
p1690
aS'Limin Lu'
p1691
aS'Palle Moller'
p1692
aS'Deidre Hunter'
p1693
aS'Osmi Vilhu'
p1694
aS'Anita Cochran'
p1695
aS'Gerard Vauclair'
p1696
aS'Craig Foltz'
p1697
aS'P. Seidelmann'
p1698
aS'Brian Yanny'
p1699
aS'Roberto Mendez'
p1700
aS'Robert Fosbury'
p1701
aS'Jacqueline Bergeron'
p1702
aS'Bernard Fort'
p1703
aS'Harry Nussbaumer'
p1704
aS'Eric Schlegel'
p1705
aS'Neal Jackson'
p1706
aS'Vera Rubin'
p1707
aS'Doyle Hall'
p1708
aS'France Cordova'
p1709
aS'William Waller'
p1710
aS'Kenneth Mighell'
p1711
aS'James Cordes'
p1712
aS'Wil van Breugel'
p1713
aS'Matthew Lehnert'
p1714
aS'Isabella Gioia'
p1715
aS'Wayne Landsman'
p1716
aS'Anne-Marie Lagrange'
p1717
aS'Kirk Borne'
p1718
aS'Claude Emerich'
p1719
aS'John Cowan'
p1720
aS'Daniel Kunth'
p1721
aS'Patrick Seitzer'
p1722
aS'Gary Bower'
p1723
aS'Sergio Ortolani'
p1724
aS'Carmelle Robert'
p1725
aS'Mark Dickinson'
p1726
aS'Thomas Ray'
p1727
aS'Robert Brown'
p1728
aS'James Hesser'
p1729
aS'Alex Storrs'
p1730
aS'Ari Laor'
p1731
aS'thomas broadhurst'
p1732
aS'Emilio Falco'
p1733
aS'John Webb'
p1734
aS'Perry Greenfield'
p1735
aS'Phillip Hodge'
p1736
aS'Warren Hack'
p1737
aS'Cindy Taylor'
p1738
aS'R. Nather'
p1739
aS'Daniel Schroeder'
p1740
aS'Olivia Lupie'
p1741
aS'Mike Hinds'
p1742
aS'Robert Williams'
p1743
aS'William Alexander'
p1744
aS'Dennis Tye'
p1745
aS'Luis Colina'
p1746
aS'Amanda Bosh'
p1747
aS'Duncan Forbes'
p1748
aS'Paul Francis'
p1749
aS'C. Gaskell'
p1750
aS'Walter Harris'
p1751
aS'Alexander Szalay'
p1752
aS'Saeqa Vrtilek'
p1753
aS'Michel Festou'
p1754
aS'Philip Nicholson'
p1755
aS'Amotz Shemi'
p1756
aS'Constantine Deliyannis'
p1757
aS'John Drilling'
p1758
aS'Ramon Lopez'
p1759
aS'Timothy Kallman'
p1760
aS'Chris Shrader'
p1761
aS'K. P. Cheng'
p1762
aS'Richard Henry'
p1763
aS'George Herbig'
p1764
aS'Francis Keenan'
p1765
aS'Katherine Roth'
p1766
aS'C. Seab'
p1767
aS'Peter Wannier'
p1768
aS'Michael Bolte'
p1769
aS'Nelson Caldwell'
p1770
aS'Gregory Fahlman'
p1771
aS'Philippe Fischer'
p1772
aS'Gretchen Harris'
p1773
aS'Pascale Jablonka'
p1774
aS'Eugene Magnier'
p1775
aS'Georges Meylan'
p1776
aS'Nicholas Suntzeff'
p1777
aS'David Axon'
p1778
aS'Jean Brodie'
p1779
aS'Claude Canizares'
p1780
aS'Ian Evans'
p1781
aS'Klaus Meisenheimer'
p1782
aS'Ian Smail'
p1783
aS'Craig Hogan'
p1784
aS'Jean Surdej'
p1785
aS'Ian Browne'
p1786
aS'Richard McMahon'
p1787
aS'Steve Rawlings'
p1788
aS'George Rhee'
p1789
aS'Hermann-Josef Roeser'
p1790
aS'Carl Grillmair'
p1791
aS'Buell Jannuzi'
p1792
aS'Nick Kaiser'
p1793
aS'Olivier Le Fevre'
p1794
aS'John Lucey'
p1795
aS'Andrew Phillips'
p1796
aS'Jean-Rene Roy'
p1797
aS'Roberto Saglia'
p1798
aS'J. Tyson'
p1799
aS'James Clemens'
p1800
aS'Domitilla De Martino'
p1801
aS'Brian Flynn'
p1802
aS'Philip Matheson'
p1803
aS'Tim Naylor'
p1804
aS'Nicholas Schneider'
p1805
aS'Richard Burg'
p1806
aS'John Hershey'
p1807
aS'Christoph Leinert'
p1808
aS'Jon Morse'
p1809
aS'Wayne Osborn'
p1810
aS'Miriam Pena'
p1811
aS'Carol Ambruster'
p1812
aS'Claude Catala'
p1813
aS'Philip Dufton'
p1814
aS'Joel Eaton'
p1815
aS'Carole Jordan'
p1816
aS'Rex Saffer'
p1817
aS'Werner Schmutz'
p1818
aS'Myron Smith'
p1819
aS'Ronald Webbink'
p1820
aS'Keith Ashman'
p1821
aS'Bengt Gustafsson'
p1822
aS'Lin Zuo'
p1823
aS'Philip Charles'
p1824
aS'Roger Foster'
p1825
aS'Malcolm Fridlund'
p1826
aS'Steve Heathcote'
p1827
aS'Richard Jameson'
p1828
aS'Scott Kenyon'
p1829
aS'Elizabeth Lada'
p1830
aS'Edward Rosenthal'
p1831
aS'Roger Yelle'
p1832
aS'Stephan Martin'
p1833
aS'Marco Tavani'
p1834
aS'Peter Shelus'
p1835
aS'William Fastie'
p1836
aS'Kazimierz Borkowski'
p1837
aS'Puragra Guhathakurta'
p1838
aS'Michael Rowan-Robinson'
p1839
aS'Brian Boyle'
p1840
aS'Susan Trammell'
p1841
aS'Michael Rauch'
p1842
aS'Kenneth Sembach'
p1843
aS'Joel Kastner'
p1844
aS'Michael Bessell'
p1845
aS'Paola Battinelli'
p1846
aS'Andrew Hamilton'
p1847
aS'Shoko Sakai'
p1848
aS'Souza Kepler'
p1849
aS'Paul Smith'
p1850
aS'Axel Schwope'
p1851
aS'Ralf Napiwotzki'
p1852
aS'S. Dreizler'
p1853
aS'Dante Minniti'
p1854
aS"Darragh O'Donoghue"
p1855
aS'Debra Elmegreen'
p1856
aS'Robert Gehrz'
p1857
aS'Sid Parsons'
p1858
aS'Ronald Buta'
p1859
aS'Harold Levison'
p1860
aS'Patrick Roche'
p1861
aS'Verne Smith'
p1862
aS'Alan Fitzsimmons'
p1863
aS'Robert Baade'
p1864
aS'Roberto Magnani'
p1865
aS'Paul Green'
p1866
aS'Valentin Bujarrabal'
p1867
aS'Mohammad Heydari-Malayeri'
p1868
aS'Tim De Zeeuw'
p1869
aS'Charles Lawrence'
p1870
aS'Klaus Beuermann'
p1871
aS'Stephen Warren'
p1872
aS'Laura Fullton'
p1873
aS'Gerald Cecil'
p1874
aS'Sun Kwok'
p1875
aS'Sandhya Rao'
p1876
aS'Ralf Dettmar'
p1877
aS'Alberto Lopez'
p1878
aS'Elizabeth Puchnarewicz'
p1879
aS'Fernando Camilo'
p1880
aS'Alistair Walker'
p1881
aS'Stephane Vennes'
p1882
aS'Andrea Cimatti'
p1883
aS'Robert Goodrich'
p1884
aS'Donald Luttermoser'
p1885
aS'Robin Kingsburgh'
p1886
aS'Roberto Buonanno'
p1887
aS'Matthew Burleigh'
p1888
aS'James McCarthy'
p1889
aS'Francois Wesemael'
p1890
aS'Angela Bragaglia'
p1891
aS'Stephanie Cote'
p1892
aS'John Hibbard'
p1893
aS'Maria Garcia-Vargas'
p1894
aS'Esther Zirbel'
p1895
aS'Edwin Huizinga'
p1896
aS'Bryan Miller'
p1897
aS'Douglas Geisler'
p1898
aS'Rodrigo Ibata'
p1899
aS'Laura Kay'
p1900
aS'Geraldine Peters'
p1901
aS'Theodore Stecher'
p1902
aS'William Welsh'
p1903
aS'Donald Winget'
p1904
aS'Michael Combi'
p1905
aS'David Neufeld'
p1906
aS'Seb Oliver'
p1907
aS'Jay Goguen'
p1908
aS'Jochen Eisloeffel'
p1909
aS'Michael Mumma'
p1910
aS'Ted Roush'
p1911
aS'Gordon MacAlpine'
p1912
aS"Timothy O'Brien"
p1913
aS'Chan Na'
p1914
aS'James Rose'
p1915
aS'James Dunlop'
p1916
aS'Richard Rothschild'
p1917
aS'George Jacoby'
p1918
aS'Raymundo Baptista'
p1919
aS'Tilmann Denk'
p1920
aS'Richard French'
p1921
aS'Hans-Walter Rix'
p1922
aS'Richard Elston'
p1923
aS'Paul Hodge'
p1924
aS'Andrew Layden'
p1925
aS'Patrick Petitjean'
p1926
aS'David Devine'
p1927
aS'David Schade'
p1928
aS'Patrick Shopbell'
p1929
aS'Douglas Currie'
p1930
aS'Howard Yee'
p1931
aS'Michael Pierce'
p1932
aS'Jon Bell'
p1933
aS'Richard Kron'
p1934
aS'Cindy Kurt'
p1935
aS'James Pan'
p1936
aS'James Flood'
p1937
aS'Priscilla Frisch'
p1938
aS'Michael Dahlem'
p1939
aS'Jennifer Christensen'
p1940
aS'Sherie Holfeltz'
p1941
aS'Kenneth Kellermann'
p1942
aS'Gerry Neugebauer'
p1943
aS'Tomislav Kundic'
p1944
aS'David Elkin'
p1945
aS'Robert Chapman'
p1946
aS'Jesus Balleza'
p1947
aS'Randy Kimble'
p1948
aS'Charles Bowers'
p1949
aS'Anthony Danks'
p1950
aS'Edwin Erickson'
p1951
aS'Bradford Smith'
p1952
aS'Chris Skinner'
p1953
aS'George Sonneborn'
p1954
aS'Eliot Malumuth'
p1955
aS'L. Storrie-Lombardi'
p1956
aS'Ron Downes'
p1957
aS'Marcia Rieke'
p1958
aS'John Black'
p1959
aS'Irwin Shapiro'
p1960
aS'Frank Low'
p1961
aS'Don McCarthy'
p1962
aS'Erick Young'
p1963
aS'John Hill'
p1964
aS'Rich Terrile'
p1965
aS'Eyal Maoz'
p1966
aS'Heino Falcke'
p1967
aS'Frazer Owen'
p1968
aS'John Peacock'
p1969
aS'Roberto Fanti'
p1970
aS'Xavier Barcons'
p1971
aS'Scott Burles'
p1972
aS'Hans van Winckel'
p1973
aS'Dominik Bomans'
p1974
aS'Tomas Brage'
p1975
aS'Gerard Gilmore'
p1976
aS'Reinhard Mundt'
p1977
aS'Fulvio Melia'
p1978
aS'Mark Lemmon'
p1979
aS'Joan Najita'
p1980
aS'Susan Terebey'
p1981
aS'Gary Bernstein'
p1982
aS'Max Pettini'
p1983
aS'Richard Saunders'
p1984
aS'Gordon Squires'
p1985
aS'Donald Figer'
p1986
aS'William Latter'
p1987
aS'Mark McCaughrean'
p1988
aS'Hans Zinnecker'
p1989
aS'Eva Grebel'
p1990
aS'Piero Rosati'
p1991
aS'Martin Still'
p1992
aS'Fred Ringwald'
p1993
aS'Janet Drew'
p1994
aS'Lex Kaper'
p1995
aS'Thierry Rousseau'
p1996
aS'Andre Van Teeseling'
p1997
aS'Kim Venn'
p1998
aS'Bruno Lopez'
p1999
aS'Michael Meyer'
p2000
aS'Rosemary Wyse'
p2001
aS'Kim McLeod'
p2002
aS'Anthony Readhead'
p2003
aS'Robert West'
p2004
aS'Reynier Peletier'
p2005
aS'Alain Smette'
p2006
aS'Sylvie Beaulieu'
p2007
aS'John Carr'
p2008
aS'Francois Schweizer'
p2009
aS'William van Altena'
p2010
aS'Vincenzo Zappala'
p2011
aS'James Elliot'
p2012
aS'Catherine Olkin'
p2013
aS'Arsen Hajian'
p2014
aS'Monica Tosi'
p2015
aS'Donald Walter'
p2016
aS'Ronald Allen'
p2017
aS'Matthew Bershady'
p2018
aS'Joseph Harrington'
p2019
aS'Glen Mackie'
p2020
aS'Stephen Odewahn'
p2021
aS'Patrick Osmer'
p2022
aS'Kavan Ratnatunga'
p2023
aS'Joe Silk'
p2024
aS'Rene Walterbos'
p2025
aS'Michael Wolff'
p2026
aS'Kenneth Wood'
p2027
aS'Amos Yahil'
p2028
aS'Donna Weistrop'
p2029
aS'Charles Joseph'
p2030
aS'Fred Roesler'
p2031
aS'John Timothy'
p2032
aS'Edith Falgarone'
p2033
aS'Jeff Hayes'
p2034
aS'Howard Lanning'
p2035
aS'Elena Pian'
p2036
aS'Felix Mirabel'
p2037
aS'Cecilia Barnbaum'
p2038
aS'Jay Frogel'
p2039
aS'Tim Gledhill'
p2040
aS'Jan Hollis'
p2041
aS'Hugh Jones'
p2042
aS'Joachim Krautter'
p2043
aS'Rafael Rebolo'
p2044
aS'Stuart Pottasch'
p2045
aS'Philip Myers'
p2046
aS'David Wilner'
p2047
aS'Laura Ferrarese'
p2048
aS'Roberto Maiolino'
p2049
aS'Richard Pogge'
p2050
aS'Peter Wilkinson'
p2051
aS'Timothy Bedding'
p2052
aS'Paul van der Werf'
p2053
aS'Humberto Campins'
p2054
aS'Myungshin Im'
p2055
aS'Eduardo Martin'
p2056
aS'John Isaacs'
p2057
aS'James Gunn'
p2058
aS'Jason Young'
p2059
aS'Linda Sparke'
p2060
aS'Philip Plait'
p2061
aS'Suchitra Balachandran'
p2062
aS'Catharine Garmany'
p2063
aS'Robin Evans'
p2064
aS'Thierry Forveille'
p2065
aS'Marie Treyer'
p2066
aS'Riccardo Scarpa'
p2067
aS'Carole Mundell'
p2068
aS'Kenneth Nordsieck'
p2069
aS'Glenn Orton'
p2070
aS'Kerstin Weis'
p2071
aS'Fran Bagenal'
p2072
aS'Guenther Hasinger'
p2073
aS'Simon Driver'
p2074
aS'Artemio Herrero'
p2075
aS'Bruce Hrivnak'
p2076
aS'Edward Ajhar'
p2077
aS'Catherine Dougados'
p2078
aS'Joanne Baker'
p2079
aS'David Patton'
p2080
aS'Horace Smith'
p2081
aS'Patricia Knezek'
p2082
aS'Stephen Serjeant'
p2083
aS'Michael Siegel'
p2084
aS'Kirk Korista'
p2085
aS'Alastair Edge'
p2086
aS'Steven Majewski'
p2087
aS'Martin Lemoine'
p2088
aS'Debra Wallace'
p2089
aS'Christopher Martin'
p2090
aS'Gregory Bothun'
p2091
aS'Roger Davies'
p2092
aS'David Clements'
p2093
aS'Michael Briley'
p2094
aS'John Richardson'
p2095
aS'Dimitar Sasselov'
p2096
aS'Ian Waddington'
p2097
aS'Nancy Chanover'
p2098
aS'Barbara Whitney'
p2099
aS'Riccardo Giovanelli'
p2100
aS'Beverly Smith'
p2101
aS'Jonathan Gardner'
p2102
aS'Dmitri Verner'
p2103
aS'Edwin Barker'
p2104
aS'Robert Kennicutt'
p2105
aS'Xiao-wei Liu'
p2106
aS'Meena Sahu'
p2107
aS'Torsten Boeker'
p2108
aS'Eline Tolstoy'
p2109
aS'Lance Miller'
p2110
aS'Peter Nugent'
p2111
aS'Ramiro de la Reza'
p2112
aS'Kenneth Hinkle'
p2113
aS'Bradford Behr'
p2114
aS'Mark Bullock'
p2115
aS'Rafael Guzman'
p2116
aS'Sofia Feltzing'
p2117
aS'Jens Hjorth'
p2118
aS'Antonio Aparicio'
p2119
aS'Thomas Dumm'
p2120
aS'Francesco Palla'
p2121
aS'Ralph Neuhaeuser'
p2122
aS'Sally Hunsberger'
p2123
aS'Terrence Rettig'
p2124
aS'Dana Dinescu'
p2125
aS'Tereasa Brainerd'
p2126
aS'Shashi Kanbur'
p2127
aS'Eric Deutsch'
p2128
aS'Claudia-Angelica Burg'
p2129
aS'Michael Pahre'
p2130
aS'Tahir Yaqoob'
p2131
aS'George Ricker'
p2132
aS'Kenneth Pulkkinen'
p2133
aS'Ray Beaser'
p2134
aS'Hien Tran'
p2135
aS'Liese van Zee'
p2136
aS'Chris Willott'
p2137
aS'Martin Bureau'
p2138
aS'Andrew Cameron'
p2139
aS'David Charbonneau'
p2140
aS'Dale Cruikshank'
p2141
aS'Pierre Ferruit'
p2142
aS'Francois Hammer'
p2143
aS'Eric Miller'
p2144
aS'Gijs Verdoes Kleijn'
p2145
aS'Jennifer Wiseman'
p2146
aS'Paul Groot'
p2147
aS'Jules Halpern'
p2148
aS'Vladimir Krasnopolsky'
p2149
aS'Susan Ridgway'
p2150
aS'Christian Veillet'
p2151
aS'Aneta Siemiginowska'
p2152
aS'Stephen Murray'
p2153
aS'Albert Zijlstra'
p2154
aS'Roger Cayrel'
p2155
aS'Cyril Hazard'
p2156
aS'Carlos Allende-Prieto'
p2157
aS'Evencio Mediavilla'
p2158
aS'Christine Wilson'
p2159
aS'Seppo Laine'
p2160
aS'David Thompson'
p2161
aS'Stephen Eikenberry'
p2162
aS'Divas Sanwal'
p2163
aS'Min Yun'
p2164
aS'Paolo Padovani'
p2165
aS'Neil Nagar'
p2166
aS'Peter Young'
p2167
aS'Scott Tremaine'
p2168
aS'Bohdan Paczynski'
p2169
aS'David Merritt'
p2170
aS'Jack Gallimore'
p2171
aS'David Goldstein'
p2172
aS'Lawrence Rudnick'
p2173
aS'Michael Fall'
p2174
aS'Andrew Ptak'
p2175
aS'Jonathan Arons'
p2176
aS'Sumner Starrfield'
p2177
aS'Eric Roberts'
p2178
aS'Nicole Moore'
p2179
aS'Terry Bridges'
p2180
aS'Bryan Dorland'
p2181
aS'Guillermo Torres'
p2182
aS'Matthias Schreiber'
p2183
aS'William Herbst'
p2184
aS'Jean-Luc Margot'
p2185
aS'Joel Parker'
p2186
aS'Roberto Abraham'
p2187
aS'Omar Almaini'
p2188
aS'Daniel Kelson'
p2189
aS'Sebastian Jester'
p2190
aS'Barton Pritzl'
p2191
aS'Bertrand Goldman'
p2192
aS'Russel White'
p2193
aS'Eric Emsellem'
p2194
aS'Edward Moran'
p2195
aS'Martino Romaniello'
p2196
aS'Bassem Sabra'
p2197
aS'Barry Welsh'
p2198
aS'Gerard Williger'
p2199
aS'Jose Munoz'
p2200
aS'Francesca Primas'
p2201
aS'Michael Blanton'
p2202
aS'Roger Chevalier'
p2203
aS'Steven Crawford'
p2204
aS'Jeffrey Gardner'
p2205
aS'Alister Graham'
p2206
aS'Alex Lazarian'
p2207
atp2208
b.