(lp0
ccopy_reg
_reconstructor
p1
(c__main__
Uber
p2
c__builtin__
object
p3
Ntp4
Rp5
(dp6
S'black_high'
p7
(lp8
I230
aI230
aI230
aI250
aI262
aI262
aI262
aI262
aI262
aI262
aI262
aI262
aI262
aI262
aI262
aI255
aI255
aI255
aI201
aI201
aI201
aI201
aI201
aI201
aI201
aI201
aI201
aI201
aI201
aI201
aI183
aI183
aI183
aI183
aI183
aI183
aI183
aI183
aI183
aI183
aI183
aI216
aI216
aI216
aI216
aI213
aI213
aI213
aI320
aI213
aI213
aI213
aI213
aI213
aI213
aI213
aI213
aI215
aI215
aI322
aI215
aI215
aI215
aI215
aI215
aI215
aI215
aI215
aI215
aI193
aI193
aI193
aI193
aI193
aI193
aI193
aI193
aI193
aI193
aI193
aI233
aI233
aI233
aI233
aI233
aI233
aI233
aI233
aI233
aI233
aI233
aI233
aI233
aI211
aI211
aI211
aI211
aI211
aI211
aI211
aI211
aI211
aI211
aI211
aI211
aI214
aI214
aI214
aI214
aI214
aI214
aI214
aI214
aI214
aI214
aI214
aI219
aI219
aI219
aI219
aI219
aI219
aI219
aI219
aI219
aI232
aI232
aI232
aI185
aI185
aI185
aI184
aI184
aI184
aI184
aI184
aI211
aI211
aI211
aI211
aI211
aI215
aI215
aI215
aI215
aI215
aI215
aI215
aI215
aI215
aI215
aI215
aI215
aI194
aI194
aI194
aI194
aI194
aI194
aI194
aI231
aI231
aI231
aI227
aI227
aI227
aI227
aI227
aI227
aI227
aI227
aI227
aI227
aI227
aI226
aI226
aI226
aI226
aI215
aI215
aI215
aI215
aI215
aI215
aI322
aI365
aI215
aI215
aI184
aI184
aI184
aI184
aI184
aI184
aI184
aI184
aI185
aI185
aI185
aI185
aI185
aI185
aI185
aI185
aI185
aI185
aI185
aI185
aI215
aI215
aI224
aI215
aI215
aI215
aI215
aI215
aI215
aI215
aI215
aI215
aI211
aI211
aI211
aI211
aI211
aI211
aI211
aI211
aI218
aI218
aI218
aI194
aI225
aI225
aI225
aI225
aI225
aI225
aI225
aI225
aI225
aI225
aI223
aI223
aI238
aI238
aI192
aI192
aI192
aI192
aI192
aI192
aI214
aI214
aI214
aI214
aI214
aI214
aI214
aI214
aI187
aI187
aI187
aI187
aI187
aI187
aI187
aI187
aI187
aI187
aI187
aI187
aI188
aI188
aI188
aI188
aI188
aI188
aI188
aI188
aI187
aI187
aI187
aI187
aI187
aI210
aI210
aI210
aI210
aI210
aI210
aI210
aI210
aI210
aI210
aI193
aI193
aI233
aI233
aI233
aI233
aI233
aI233
aI233
aI233
aI233
aI233
aI233
aI233
aI228
aI228
aI228
aI228
aI228
aI228
aI228
aI228
aI228
aI228
aI228
aI228
aI223
aI223
aI223
aI223
aI223
aI223
aI223
aI223
aI223
aI223
aI223
aI224
aI224
aI224
aI224
aI224
aI224
aI224
aI224
aI224
aI224
aI224
aI224
aI224
aI190
aI190
aI190
aI190
aI190
aI207
aI207
aI207
aI207
aI207
aI207
aI207
aI207
aI207
aI207
aI207
aI207
aI207
aI217
aI217
aI217
aI215
aI215
aI215
aI215
aI215
aI215
aI215
aI215
aI215
aI215
aI215
aI215
aI204
aI204
aI204
aI204
aI204
aI187
aI187
aI187
aI187
aI187
aI187
aI187
aI187
aI187
aI187
aI187
aI187
aI186
aI186
aI186
aI186
aI186
aI186
aI186
aI186
aI186
aI186
aI186
aI186
aI185
aI185
aI185
aI185
aI185
aI185
aI219
aI219
aI219
aI219
aI219
aI219
aI219
aI229
aI229
aI229
aI229
aI229
aI229
aI229
aI229
aI229
aI229
aI229
aI224
aI219
aI219
aI219
aI219
aI219
aI219
aI233
aI233
aI233
aI233
aI218
aI218
aI218
aI218
aI218
aI186
aI186
aI186
aI186
aI186
aI186
aI186
aI186
aI186
aI186
aI219
aI219
aI219
aI219
aI219
aI219
aI219
aI215
aI215
aI215
aI215
aI215
aI215
aI215
aI215
aI215
aI215
aI215
aI215
aI215
aI213
aI213
aI213
aI213
aI213
aI213
aI213
aI213
aI184
aI184
aI184
aI184
aI184
aI184
aI184
aI199
aI199
aI199
aI199
aI199
aI199
aI215
aI215
aI215
aI215
aI215
aI211
aI211
aI211
aI211
aI211
aI211
aI211
aI211
aI211
aI211
aI211
aI211
aI218
aI218
aI218
aI218
aI218
aI218
aI218
aI213
aI213
aI213
aI227
aI227
aI227
aI227
aI227
aI227
aI227
aI227
aI227
aI227
aI227
aI227
aI225
aI225
aI225
aI225
aI225
aI187
aI187
aI187
aI187
aI187
aI187
aI185
aI185
aI185
aI185
aI185
aI185
aI185
aI185
aI185
aI185
aI185
aI185
aI214
aI214
aI214
aI214
aI214
aI214
aI214
aI214
aI214
aI214
aI216
aI216
aI216
aI216
aI216
aI216
aI216
aI216
aI232
aI232
aI232
aI232
aI216
aI216
aI216
aI217
aI217
aI217
aI217
aI217
aI217
aI217
aI217
aI217
aI217
aI247
aI247
aI247
aI224
aI217
aI217
aI217
aI217
aI217
aI217
aI215
aI215
aI215
aI215
aI215
aI215
aI215
aI224
aI215
aI215
asS'suv_surge'
p9
(lp10
F1.0
aF1.0
aF1.0
aF1.0
aF1.0
aF1.0
aF1.0
aF1.0
aF1.0
aF1.0
aF1.0
aF1.0
aF1.0
aF1.0
aF1.0
aF1.0
aF1.0
aF1.0
aF1.0
aF1.0
aF1.0
aF1.0
aF1.0
aF1.0
aF1.0
aF1.0
aF1.0
aF1.0
aF1.0
aF1.0
aF1.0
aF1.0
aF1.0
aF1.0
aF1.0
aF1.0
aF1.0
aF1.0
aF1.0
aF1.0
aF1.0
aF1.0
aF1.0
aF1.0
aF1.0
aF1.0
aF1.0
aF1.0
aF1.5
aF1.0
aF1.0
aF1.0
aF1.0
aF1.0
aF1.0
aF1.0
aF1.0
aF1.0
aF1.0
aF1.5
aF1.0
aF1.0
aF1.0
aF1.0
aF1.0
aF1.0
aF1.0
aF1.0
aF1.0
aF1.0
aF1.0
aF1.0
aF1.0
aF1.0
aF1.0
aF1.0
aF1.0
aF1.0
aF1.0
aF1.0
aF1.0
aF1.0
aF1.0
aF1.0
aF1.0
aF1.0
aF1.0
aF1.0
aF1.0
aF1.0
aF1.0
aF1.0
aF1.0
aF1.0
aF1.0
aF1.0
aF1.0
aF1.0
aF1.0
aF1.0
aF1.0
aF1.0
aF1.0
aF1.0
aF1.0
aF1.0
aF1.0
aF1.0
aF1.0
aF1.0
aF1.0
aF1.0
aF1.0
aF1.0
aF1.0
aF1.0
aF1.0
aF1.0
aF1.0
aF1.0
aF1.0
aF1.0
aF1.0
aF1.0
aF1.0
aF1.0
aF1.0
aF1.0
aF1.0
aF1.0
aF1.0
aF1.0
aF1.0
aF1.0
aF1.0
aF1.0
aF1.0
aF1.0
aF1.0
aF1.0
aF1.0
aF1.0
aF1.0
aF1.0
aF1.0
aF1.0
aF1.0
aF1.0
aF1.0
aF1.0
aF1.0
aF1.0
aF1.0
aF1.0
aF1.0
aF1.0
aF1.0
aF1.0
aF1.0
aF1.0
aF1.0
aF1.0
aF1.0
aF1.0
aF1.0
aF1.0
aF1.0
aF1.0
aF1.0
aF1.0
aF1.0
aF1.0
aF1.0
aF1.0
aF1.0
aF1.0
aF1.0
aF1.0
aF1.0
aF1.0
aF1.0
aF1.0
aF1.0
aF1.0
aF1.5
aF1.7
aF1.0
aF1.0
aF1.0
aF1.0
aF1.0
aF1.0
aF1.0
aF1.0
aF1.0
aF1.0
aF1.0
aF1.0
aF1.0
aF1.0
aF1.0
aF1.0
aF1.0
aF1.0
aF1.0
aF1.0
aF1.0
aF1.0
aF1.0
aF1.0
aF1.0
aF1.0
aF1.0
aF1.0
aF1.0
aF1.0
aF1.0
aF1.0
aF1.0
aF1.0
aF1.0
aF1.0
aF1.0
aF1.0
aF1.0
aF1.0
aF1.0
aF1.0
aF1.0
aF1.0
aF1.0
aF1.0
aF1.0
aF1.0
aF1.0
aF1.0
aF1.0
aF1.0
aF1.0
aF1.0
aF1.0
aF1.0
aF1.0
aF1.0
aF1.0
aF1.0
aF1.0
aF1.0
aF1.0
aF1.0
aF1.0
aF1.0
aF1.0
aF1.0
aF1.0
aF1.0
aF1.0
aF1.0
aF1.0
aF1.0
aF1.0
aF1.0
aF1.0
aF1.0
aF1.0
aF1.0
aF1.0
aF1.0
aF1.0
aF1.0
aF1.0
aF1.0
aF1.0
aF1.0
aF1.0
aF1.0
aF1.0
aF1.0
aF1.0
aF1.0
aF1.0
aF1.0
aF1.0
aF1.0
aF1.0
aF1.0
aF1.0
aF1.0
aF1.0
aF1.0
aF1.0
aF1.0
aF1.0
aF1.0
aF1.0
aF1.0
aF1.0
aF1.0
aF1.0
aF1.0
aF1.0
aF1.0
aF1.0
aF1.0
aF1.0
aF1.0
aF1.0
aF1.0
aF1.0
aF1.0
aF1.0
aF1.0
aF1.0
aF1.0
aF1.0
aF1.0
aF1.0
aF1.0
aF1.0
aF1.0
aF1.0
aF1.0
aF1.0
aF1.0
aF1.0
aF1.0
aF1.0
aF1.0
aF1.0
aF1.0
aF1.0
aF1.0
aF1.0
aF1.0
aF1.0
aF1.0
aF1.0
aF1.0
aF1.0
aF1.0
aF1.0
aF1.0
aF1.0
aF1.0
aF1.0
aF1.0
aF1.0
aF1.0
aF1.0
aF1.0
aF1.0
aF1.0
aF1.0
aF1.0
aF1.0
aF1.0
aF1.0
aF1.0
aF1.0
aF1.0
aF1.0
aF1.0
aF1.0
aF1.0
aF1.0
aF1.0
aF1.0
aF1.0
aF1.0
aF1.0
aF1.0
aF1.0
aF1.0
aF1.0
aF1.0
aF1.0
aF1.0
aF1.0
aF1.0
aF1.0
aF1.0
aF1.0
aF1.0
aF1.0
aF1.0
aF1.0
aF1.0
aF1.0
aF1.0
aF1.0
aF1.0
aF1.0
aF1.0
aF1.0
aF1.0
aF1.0
aF1.0
aF1.0
aF1.0
aF1.0
aF1.0
aF1.0
aF1.0
aF1.0
aF1.0
aF1.0
aF1.0
aF1.0
aF1.0
aF1.0
aF1.0
aF1.0
aF1.0
aF1.0
aF1.0
aF1.0
aF1.0
aF1.0
aF1.0
aF1.0
aF1.0
aF1.0
aF1.0
aF1.0
aF1.0
aF1.0
aF1.0
aF1.0
aF1.0
aF1.0
aF1.0
aF1.0
aF1.0
aF1.0
aF1.0
aF1.0
aF1.0
aF1.0
aF1.0
aF1.0
aF1.0
aF1.0
aF1.0
aF1.0
aF1.0
aF1.0
aF1.0
aF1.0
aF1.0
aF1.0
aF1.0
aF1.0
aF1.0
aF1.0
aF1.0
aF1.0
aF1.0
aF1.0
aF1.0
aF1.0
aF1.0
aF1.0
aF1.0
aF1.0
aF1.0
aF1.0
aF1.0
aF1.0
aF1.0
aF1.0
aF1.0
aF1.0
aF1.0
aF1.0
aF1.0
aF1.0
aF1.0
aF1.0
aF1.0
aF1.0
aF1.0
aF1.0
aF1.0
aF1.0
aF1.0
aF1.0
aF1.0
aF1.0
aF1.0
aF1.0
aF1.0
aF1.0
aF1.0
aF1.0
aF1.0
aF1.0
aF1.0
aF1.0
aF1.0
aF1.0
aF1.0
aF1.0
aF1.0
aF1.0
aF1.0
aF1.0
aF1.0
aF1.0
aF1.0
aF1.0
aF1.0
aF1.0
aF1.0
aF1.0
aF1.0
aF1.0
aF1.0
aF1.0
aF1.0
aF1.0
aF1.0
aF1.0
aF1.0
aF1.0
aF1.0
aF1.0
aF1.0
aF1.0
aF1.0
aF1.0
aF1.0
aF1.0
aF1.0
aF1.0
aF1.0
aF1.0
aF1.0
aF1.0
aF1.0
aF1.0
aF1.0
aF1.0
aF1.0
aF1.0
aF1.0
aF1.0
aF1.0
aF1.0
aF1.0
aF1.0
aF1.0
aF1.0
aF1.0
aF1.0
aF1.0
aF1.0
aF1.0
aF1.0
aF1.0
aF1.0
aF1.0
aF1.0
aF1.0
aF1.0
aF1.0
aF1.0
aF1.0
aF1.0
aF1.0
aF1.0
aF1.0
aF1.0
aF1.0
aF1.0
aF1.0
aF1.0
aF1.0
aF1.0
aF1.0
aF1.0
aF1.0
aF1.0
aF1.0
aF1.0
aF1.0
aF1.0
aF1.0
aF1.0
aF1.0
aF1.0
aF1.0
aF1.0
aF1.0
aF1.0
aF1.0
aF1.0
aF1.0
aF1.0
aF1.0
aF1.0
aF1.0
aF1.0
aF1.0
aF1.0
aF1.0
aF1.0
aF1.0
aF1.0
aF1.0
aF1.0
aF1.0
aF1.0
aF1.0
aF1.0
aF1.0
asS'suv_high'
p11
(lp12
I230
aI230
aI230
aI250
aI262
aI262
aI262
aI262
aI262
aI262
aI262
aI262
aI262
aI262
aI262
aI255
aI255
aI255
aI201
aI201
aI201
aI201
aI201
aI201
aI201
aI201
aI201
aI201
aI201
aI201
aI183
aI183
aI183
aI183
aI183
aI183
aI183
aI183
aI183
aI183
aI183
aI216
aI216
aI216
aI216
aI213
aI213
aI213
aI320
aI213
aI213
aI213
aI213
aI213
aI213
aI213
aI213
aI215
aI215
aI322
aI215
aI215
aI215
aI215
aI215
aI215
aI215
aI215
aI215
aI193
aI193
aI193
aI193
aI193
aI193
aI193
aI193
aI193
aI193
aI193
aI233
aI233
aI233
aI233
aI233
aI233
aI233
aI233
aI233
aI233
aI233
aI233
aI233
aI211
aI211
aI211
aI211
aI211
aI211
aI211
aI211
aI211
aI211
aI211
aI211
aI214
aI214
aI214
aI214
aI214
aI214
aI214
aI214
aI214
aI214
aI214
aI219
aI219
aI219
aI219
aI219
aI219
aI219
aI219
aI219
aI232
aI232
aI232
aI185
aI185
aI185
aI184
aI184
aI184
aI184
aI184
aI211
aI211
aI211
aI211
aI211
aI215
aI215
aI215
aI215
aI215
aI215
aI215
aI215
aI215
aI215
aI215
aI215
aI194
aI194
aI194
aI194
aI194
aI194
aI194
aI231
aI231
aI231
aI227
aI227
aI227
aI227
aI227
aI227
aI227
aI227
aI227
aI227
aI227
aI226
aI226
aI226
aI226
aI215
aI215
aI215
aI215
aI215
aI215
aI322
aI365
aI215
aI215
aI184
aI184
aI184
aI184
aI184
aI184
aI184
aI184
aI185
aI185
aI185
aI185
aI185
aI185
aI185
aI185
aI185
aI185
aI185
aI185
aI215
aI215
aI224
aI215
aI215
aI215
aI215
aI215
aI215
aI215
aI215
aI215
aI211
aI211
aI211
aI211
aI211
aI211
aI211
aI211
aI218
aI218
aI218
aI194
aI225
aI225
aI225
aI225
aI225
aI225
aI225
aI225
aI225
aI225
aI223
aI223
aI238
aI238
aI192
aI192
aI192
aI192
aI192
aI192
aI214
aI214
aI214
aI214
aI214
aI214
aI214
aI214
aI187
aI187
aI187
aI187
aI187
aI187
aI187
aI187
aI187
aI187
aI187
aI187
aI188
aI188
aI188
aI188
aI188
aI188
aI188
aI188
aI187
aI187
aI187
aI187
aI187
aI210
aI210
aI210
aI210
aI210
aI210
aI210
aI210
aI210
aI210
aI193
aI193
aI233
aI233
aI233
aI233
aI233
aI233
aI233
aI233
aI233
aI233
aI233
aI233
aI228
aI228
aI228
aI228
aI228
aI228
aI228
aI228
aI228
aI228
aI228
aI228
aI223
aI223
aI223
aI223
aI223
aI223
aI223
aI223
aI223
aI223
aI223
aI224
aI224
aI224
aI224
aI224
aI224
aI224
aI224
aI224
aI224
aI224
aI224
aI224
aI190
aI190
aI190
aI190
aI190
aI207
aI207
aI207
aI207
aI207
aI207
aI207
aI207
aI207
aI207
aI207
aI207
aI207
aI217
aI217
aI217
aI215
aI215
aI215
aI215
aI215
aI215
aI215
aI215
aI215
aI215
aI215
aI215
aI204
aI204
aI204
aI204
aI204
aI187
aI187
aI187
aI187
aI187
aI187
aI187
aI187
aI187
aI187
aI187
aI187
aI186
aI186
aI186
aI186
aI186
aI186
aI186
aI186
aI186
aI186
aI186
aI186
aI185
aI185
aI185
aI185
aI185
aI185
aI219
aI219
aI219
aI219
aI219
aI219
aI219
aI229
aI229
aI229
aI229
aI229
aI229
aI229
aI229
aI229
aI229
aI229
aI224
aI219
aI219
aI219
aI219
aI219
aI219
aI233
aI233
aI233
aI233
aI218
aI218
aI218
aI218
aI218
aI186
aI186
aI186
aI186
aI186
aI186
aI186
aI186
aI186
aI186
aI219
aI219
aI219
aI219
aI219
aI219
aI219
aI215
aI215
aI215
aI215
aI215
aI215
aI215
aI215
aI215
aI215
aI215
aI215
aI215
aI213
aI213
aI213
aI213
aI213
aI213
aI213
aI213
aI184
aI184
aI184
aI184
aI184
aI184
aI184
aI199
aI199
aI199
aI199
aI199
aI199
aI215
aI215
aI215
aI215
aI215
aI211
aI211
aI211
aI211
aI211
aI211
aI211
aI211
aI211
aI211
aI211
aI211
aI218
aI218
aI218
aI218
aI218
aI218
aI218
aI213
aI213
aI213
aI227
aI227
aI227
aI227
aI227
aI227
aI227
aI227
aI227
aI227
aI227
aI227
aI225
aI225
aI225
aI225
aI225
aI187
aI187
aI187
aI187
aI187
aI187
aI185
aI185
aI185
aI185
aI185
aI185
aI185
aI185
aI185
aI185
aI185
aI185
aI214
aI214
aI214
aI214
aI214
aI214
aI214
aI214
aI214
aI214
aI216
aI216
aI216
aI216
aI216
aI216
aI216
aI216
aI232
aI232
aI232
aI232
aI216
aI216
aI216
aI217
aI217
aI217
aI217
aI217
aI217
aI217
aI217
aI217
aI217
aI247
aI247
aI247
aI224
aI217
aI217
aI217
aI217
aI217
aI217
aI215
aI215
aI215
aI215
aI215
aI215
aI215
aI224
aI215
aI215
asS'sedan_high'
p13
(lp14
I230
aI230
aI230
aI250
aI262
aI262
aI262
aI262
aI262
aI262
aI262
aI262
aI262
aI262
aI262
aI255
aI255
aI255
aI201
aI201
aI201
aI201
aI201
aI201
aI201
aI201
aI201
aI201
aI201
aI201
aI183
aI183
aI183
aI183
aI183
aI183
aI183
aI183
aI183
aI183
aI183
aI216
aI216
aI216
aI216
aI213
aI213
aI213
aI320
aI213
aI213
aI213
aI213
aI213
aI213
aI213
aI213
aI215
aI215
aI322
aI215
aI215
aI215
aI215
aI215
aI215
aI215
aI215
aI215
aI193
aI193
aI193
aI193
aI193
aI193
aI193
aI193
aI193
aI193
aI193
aI233
aI233
aI233
aI233
aI233
aI233
aI233
aI233
aI233
aI233
aI233
aI233
aI233
aI211
aI211
aI211
aI211
aI211
aI211
aI211
aI211
aI211
aI211
aI211
aI211
aI214
aI214
aI214
aI214
aI214
aI214
aI214
aI214
aI214
aI214
aI214
aI219
aI219
aI219
aI219
aI219
aI219
aI219
aI219
aI219
aI232
aI232
aI232
aI185
aI185
aI185
aI184
aI184
aI184
aI184
aI184
aI211
aI211
aI211
aI211
aI211
aI215
aI215
aI215
aI215
aI215
aI215
aI215
aI215
aI215
aI215
aI215
aI215
aI194
aI194
aI194
aI194
aI194
aI194
aI194
aI231
aI231
aI231
aI227
aI227
aI227
aI227
aI227
aI227
aI227
aI227
aI227
aI227
aI227
aI226
aI226
aI226
aI226
aI215
aI215
aI215
aI215
aI215
aI215
aI322
aI365
aI215
aI215
aI184
aI184
aI184
aI184
aI184
aI184
aI184
aI184
aI185
aI185
aI185
aI185
aI185
aI185
aI185
aI185
aI185
aI185
aI185
aI185
aI215
aI215
aI224
aI215
aI215
aI215
aI215
aI215
aI215
aI215
aI215
aI215
aI211
aI211
aI211
aI211
aI211
aI211
aI211
aI211
aI218
aI218
aI218
aI194
aI225
aI225
aI225
aI225
aI225
aI225
aI225
aI225
aI225
aI225
aI223
aI223
aI238
aI238
aI192
aI192
aI192
aI192
aI192
aI192
aI214
aI214
aI214
aI214
aI214
aI214
aI214
aI214
aI187
aI187
aI187
aI187
aI187
aI187
aI187
aI187
aI187
aI187
aI187
aI187
aI188
aI188
aI188
aI188
aI188
aI188
aI188
aI188
aI187
aI187
aI187
aI187
aI187
aI210
aI210
aI210
aI210
aI210
aI210
aI210
aI210
aI210
aI210
aI193
aI193
aI233
aI233
aI233
aI233
aI233
aI233
aI233
aI233
aI233
aI233
aI233
aI233
aI228
aI228
aI228
aI228
aI228
aI228
aI228
aI228
aI228
aI228
aI228
aI228
aI223
aI223
aI223
aI223
aI223
aI223
aI223
aI223
aI223
aI223
aI223
aI224
aI224
aI224
aI224
aI224
aI224
aI224
aI224
aI224
aI224
aI224
aI224
aI224
aI190
aI190
aI190
aI190
aI190
aI207
aI207
aI207
aI207
aI207
aI207
aI207
aI207
aI207
aI207
aI207
aI207
aI207
aI217
aI217
aI217
aI215
aI215
aI215
aI215
aI215
aI215
aI215
aI215
aI215
aI215
aI215
aI215
aI204
aI204
aI204
aI204
aI204
aI187
aI187
aI187
aI187
aI187
aI187
aI187
aI187
aI187
aI187
aI187
aI187
aI186
aI186
aI186
aI186
aI186
aI186
aI186
aI186
aI186
aI186
aI186
aI186
aI185
aI185
aI185
aI185
aI185
aI185
aI219
aI219
aI219
aI219
aI219
aI219
aI219
aI229
aI229
aI229
aI229
aI229
aI229
aI229
aI229
aI229
aI229
aI229
aI224
aI219
aI219
aI219
aI219
aI219
aI219
aI233
aI233
aI233
aI233
aI218
aI218
aI218
aI218
aI218
aI186
aI186
aI186
aI186
aI186
aI186
aI186
aI186
aI186
aI186
aI219
aI219
aI219
aI219
aI219
aI219
aI219
aI215
aI215
aI215
aI215
aI215
aI215
aI215
aI215
aI215
aI215
aI215
aI215
aI215
aI213
aI213
aI213
aI213
aI213
aI213
aI213
aI213
aI184
aI184
aI184
aI184
aI184
aI184
aI184
aI199
aI199
aI199
aI199
aI199
aI199
aI215
aI215
aI215
aI215
aI215
aI211
aI211
aI211
aI211
aI211
aI211
aI211
aI211
aI211
aI211
aI211
aI211
aI218
aI218
aI218
aI218
aI218
aI218
aI218
aI213
aI213
aI213
aI227
aI227
aI227
aI227
aI227
aI227
aI227
aI227
aI227
aI227
aI227
aI227
aI225
aI225
aI225
aI225
aI225
aI187
aI187
aI187
aI187
aI187
aI187
aI185
aI185
aI185
aI185
aI185
aI185
aI185
aI185
aI185
aI185
aI185
aI185
aI214
aI214
aI214
aI214
aI214
aI214
aI214
aI214
aI214
aI214
aI216
aI216
aI216
aI216
aI216
aI216
aI216
aI216
aI232
aI232
aI232
aI232
aI216
aI216
aI216
aI217
aI217
aI217
aI217
aI217
aI217
aI217
aI217
aI217
aI217
aI247
aI247
aI247
aI224
aI217
aI217
aI217
aI217
aI217
aI217
aI215
aI215
aI215
aI215
aI215
aI215
aI215
aI224
aI215
aI215
asS'sedan_low'
p15
(lp16
I184
aI184
aI184
aI199
aI208
aI208
aI208
aI208
aI208
aI208
aI208
aI208
aI208
aI208
aI208
aI203
aI203
aI203
aI163
aI163
aI163
aI163
aI163
aI163
aI163
aI163
aI163
aI163
aI163
aI163
aI149
aI149
aI149
aI149
aI149
aI149
aI149
aI149
aI149
aI149
aI149
aI174
aI174
aI174
aI174
aI172
aI172
aI172
aI258
aI172
aI172
aI172
aI172
aI172
aI172
aI172
aI172
aI173
aI173
aI259
aI173
aI173
aI173
aI173
aI173
aI173
aI173
aI173
aI173
aI156
aI156
aI156
aI156
aI156
aI156
aI156
aI156
aI156
aI156
aI156
aI186
aI186
aI186
aI186
aI186
aI186
aI186
aI186
aI186
aI186
aI186
aI186
aI186
aI170
aI170
aI170
aI170
aI170
aI170
aI170
aI170
aI170
aI170
aI170
aI170
aI172
aI172
aI172
aI172
aI172
aI172
aI172
aI172
aI172
aI172
aI172
aI176
aI176
aI176
aI176
aI176
aI176
aI176
aI176
aI176
aI186
aI186
aI186
aI151
aI151
aI151
aI150
aI150
aI150
aI150
aI150
aI170
aI170
aI170
aI170
aI170
aI173
aI173
aI173
aI173
aI173
aI173
aI173
aI173
aI173
aI173
aI173
aI173
aI157
aI157
aI157
aI157
aI157
aI157
aI157
aI185
aI185
aI185
aI182
aI182
aI182
aI182
aI182
aI182
aI182
aI182
aI182
aI182
aI182
aI181
aI181
aI181
aI181
aI173
aI173
aI173
aI173
aI173
aI173
aI259
aI294
aI173
aI173
aI150
aI150
aI150
aI150
aI150
aI150
aI150
aI150
aI150
aI150
aI150
aI150
aI150
aI150
aI150
aI150
aI150
aI150
aI150
aI150
aI173
aI173
aI180
aI173
aI173
aI173
aI173
aI173
aI173
aI173
aI173
aI173
aI170
aI170
aI170
aI170
aI170
aI170
aI170
aI170
aI175
aI175
aI175
aI157
aI181
aI181
aI181
aI181
aI181
aI181
aI181
aI181
aI181
aI181
aI179
aI179
aI190
aI190
aI156
aI156
aI156
aI156
aI156
aI156
aI172
aI172
aI172
aI172
aI172
aI172
aI172
aI172
aI152
aI152
aI152
aI152
aI152
aI152
aI152
aI152
aI152
aI152
aI152
aI152
aI153
aI153
aI153
aI153
aI153
aI153
aI153
aI153
aI152
aI152
aI152
aI152
aI152
aI169
aI169
aI169
aI169
aI169
aI169
aI169
aI169
aI169
aI169
aI157
aI157
aI186
aI186
aI186
aI186
aI186
aI186
aI186
aI186
aI186
aI186
aI186
aI186
aI183
aI183
aI183
aI183
aI183
aI183
aI183
aI183
aI183
aI183
aI183
aI183
aI179
aI179
aI179
aI179
aI179
aI179
aI179
aI179
aI179
aI179
aI179
aI179
aI179
aI179
aI179
aI179
aI179
aI179
aI179
aI179
aI179
aI179
aI179
aI179
aI154
aI154
aI154
aI154
aI154
aI167
aI167
aI167
aI167
aI167
aI167
aI167
aI167
aI167
aI167
aI167
aI167
aI167
aI175
aI175
aI175
aI173
aI173
aI173
aI173
aI173
aI173
aI173
aI173
aI173
aI173
aI173
aI173
aI165
aI165
aI165
aI165
aI165
aI152
aI152
aI152
aI152
aI152
aI152
aI152
aI152
aI152
aI152
aI152
aI152
aI151
aI151
aI151
aI151
aI151
aI151
aI151
aI151
aI151
aI151
aI151
aI151
aI150
aI150
aI150
aI150
aI150
aI150
aI176
aI176
aI176
aI176
aI176
aI176
aI176
aI183
aI183
aI183
aI183
aI183
aI183
aI183
aI183
aI183
aI183
aI183
aI180
aI176
aI176
aI176
aI176
aI176
aI176
aI187
aI187
aI187
aI187
aI175
aI175
aI175
aI175
aI175
aI151
aI151
aI151
aI151
aI151
aI151
aI151
aI151
aI151
aI151
aI176
aI176
aI176
aI176
aI176
aI176
aI176
aI173
aI173
aI173
aI173
aI173
aI173
aI173
aI173
aI173
aI173
aI173
aI173
aI173
aI171
aI171
aI171
aI171
aI171
aI171
aI171
aI171
aI150
aI150
aI150
aI150
aI150
aI150
aI150
aI161
aI161
aI161
aI161
aI161
aI161
aI173
aI173
aI173
aI173
aI173
aI170
aI170
aI170
aI170
aI170
aI170
aI170
aI170
aI170
aI170
aI170
aI170
aI175
aI175
aI175
aI175
aI175
aI175
aI175
aI171
aI171
aI171
aI182
aI182
aI182
aI182
aI182
aI182
aI182
aI182
aI182
aI182
aI182
aI182
aI181
aI181
aI181
aI181
aI181
aI152
aI152
aI152
aI152
aI152
aI152
aI150
aI150
aI150
aI150
aI150
aI150
aI150
aI150
aI150
aI150
aI150
aI150
aI172
aI172
aI172
aI172
aI172
aI172
aI172
aI172
aI172
aI172
aI174
aI174
aI174
aI174
aI174
aI174
aI174
aI174
aI185
aI185
aI185
aI185
aI173
aI173
aI173
aI174
aI174
aI174
aI174
aI174
aI174
aI174
aI174
aI174
aI174
aI197
aI197
aI197
aI180
aI175
aI175
aI175
aI175
aI175
aI175
aI173
aI173
aI173
aI173
aI173
aI173
aI173
aI180
aI173
aI173
asS'uberx_high'
p17
(lp18
I88
aI88
aI88
aI134
aI130
aI100
aI100
aI100
aI100
aI100
aI100
aI100
aI100
aI100
aI100
aI98
aI98
aI98
aI78
aI78
aI78
aI78
aI78
aI78
aI78
aI78
aI78
aI78
aI78
aI78
aI72
aI72
aI72
aI72
aI72
aI72
aI72
aI72
aI72
aI72
aI72
aI82
aI82
aI123
aI123
aI82
aI82
aI82
aI82
aI82
aI82
aI82
aI82
aI82
aI82
aI82
aI82
aI82
aI82
aI82
aI98
aI114
aI106
aI82
aI82
aI82
aI82
aI82
aI82
aI75
aI75
aI75
aI75
aI75
aI112
aI157
aI105
aI75
aI75
aI75
aI89
aI133
aI89
aI133
aI133
aI89
aI89
aI89
aI89
aI133
aI187
aI125
aI89
aI81
aI81
aI81
aI81
aI81
aI81
aI81
aI81
aI81
aI81
aI81
aI81
aI82
aI82
aI82
aI82
aI82
aI82
aI82
aI82
aI123
aI107
aI82
aI84
aI84
aI84
aI84
aI84
aI84
aI84
aI84
aI84
aI89
aI89
aI89
aI72
aI72
aI72
aI72
aI72
aI72
aI72
aI72
aI81
aI81
aI81
aI81
aI81
aI82
aI82
aI82
aI82
aI82
aI82
aI82
aI82
aI82
aI82
aI82
aI82
aI113
aI75
aI75
aI75
aI113
aI90
aI90
aI89
aI89
aI89
aI88
aI88
aI88
aI88
aI131
aI183
aI122
aI88
aI88
aI88
aI88
aI87
aI87
aI87
aI87
aI82
aI82
aI82
aI82
aI82
aI82
aI82
aI82
aI82
aI82
aI72
aI72
aI72
aI72
aI72
aI72
aI107
aI150
aI107
aI72
aI72
aI72
aI72
aI72
aI72
aI72
aI72
aI72
aI72
aI100
aI163
aI220
aI162
aI98
aI82
aI82
aI82
aI82
aI82
aI82
aI82
aI82
aI81
aI81
aI81
aI81
aI81
aI81
aI81
aI81
aI83
aI83
aI83
aI76
aI121
aI87
aI87
aI87
aI87
aI87
aI87
aI87
aI87
aI87
aI86
aI86
aI91
aI91
aI75
aI75
aI75
aI75
aI75
aI75
aI82
aI82
aI82
aI82
aI82
aI82
aI82
aI82
aI73
aI73
aI73
aI73
aI73
aI73
aI73
aI73
aI73
aI73
aI73
aI73
aI109
aI153
aI131
aI73
aI73
aI73
aI131
aI73
aI73
aI73
aI73
aI73
aI73
aI80
aI80
aI80
aI80
aI80
aI80
aI80
aI80
aI80
aI80
aI75
aI75
aI89
aI89
aI89
aI89
aI89
aI125
aI89
aI89
aI89
aI134
aI89
aI89
aI89
aI89
aI124
aI89
aI89
aI89
aI89
aI89
aI89
aI89
aI89
aI89
aI86
aI86
aI86
aI86
aI86
aI86
aI86
aI86
aI86
aI86
aI86
aI86
aI86
aI86
aI86
aI86
aI86
aI86
aI86
aI86
aI86
aI86
aI86
aI86
aI74
aI74
aI74
aI74
aI74
aI79
aI79
aI79
aI79
aI79
aI79
aI79
aI79
aI79
aI79
aI79
aI79
aI79
aI85
aI85
aI85
aI83
aI83
aI83
aI83
aI83
aI83
aI83
aI83
aI83
aI83
aI83
aI83
aI80
aI80
aI80
aI80
aI80
aI73
aI73
aI73
aI73
aI73
aI73
aI73
aI73
aI73
aI73
aI73
aI73
aI72
aI72
aI72
aI72
aI72
aI72
aI72
aI72
aI72
aI72
aI72
aI72
aI72
aI72
aI72
aI72
aI72
aI72
aI85
aI85
aI85
aI85
aI85
aI85
aI85
aI88
aI88
aI88
aI88
aI88
aI88
aI88
aI88
aI88
aI88
aI88
aI85
aI85
aI85
aI85
aI85
aI85
aI85
aI90
aI90
aI90
aI90
aI83
aI83
aI83
aI83
aI83
aI72
aI72
aI72
aI72
aI72
aI72
aI72
aI72
aI72
aI72
aI84
aI84
aI84
aI84
aI84
aI84
aI84
aI83
aI83
aI83
aI83
aI83
aI83
aI83
aI83
aI83
aI83
aI83
aI83
aI83
aI81
aI81
aI81
aI81
aI81
aI81
aI81
aI81
aI72
aI72
aI72
aI72
aI72
aI72
aI72
aI77
aI77
aI77
aI77
aI77
aI77
aI82
aI82
aI82
aI82
aI82
aI81
aI81
aI81
aI81
aI81
aI81
aI81
aI81
aI81
aI81
aI81
aI81
aI83
aI83
aI83
aI83
aI83
aI83
aI83
aI83
aI83
aI83
aI88
aI88
aI88
aI88
aI88
aI88
aI88
aI88
aI88
aI88
aI88
aI88
aI87
aI87
aI87
aI87
aI87
aI73
aI73
aI73
aI73
aI73
aI73
aI72
aI72
aI72
aI72
aI72
aI72
aI72
aI72
aI72
aI72
aI72
aI72
aI82
aI82
aI82
aI82
aI82
aI82
aI82
aI82
aI82
aI82
aI82
aI82
aI82
aI82
aI82
aI82
aI82
aI82
aI89
aI89
aI89
aI89
aI82
aI82
aI82
aI85
aI85
aI85
aI85
aI85
aI85
aI85
aI85
aI85
aI85
aI95
aI95
aI95
aI85
aI85
aI85
aI85
aI85
aI85
aI85
aI83
aI83
aI83
aI83
aI83
aI83
aI83
aI85
aI83
aI83
asS'black_surge'
p19
(lp20
F1.0
aF1.0
aF1.0
aF1.0
aF1.0
aF1.0
aF1.0
aF1.0
aF1.0
aF1.0
aF1.0
aF1.0
aF1.0
aF1.0
aF1.0
aF1.0
aF1.0
aF1.0
aF1.0
aF1.0
aF1.0
aF1.0
aF1.0
aF1.0
aF1.0
aF1.0
aF1.0
aF1.0
aF1.0
aF1.0
aF1.0
aF1.0
aF1.0
aF1.0
aF1.0
aF1.0
aF1.0
aF1.0
aF1.0
aF1.0
aF1.0
aF1.0
aF1.0
aF1.0
aF1.0
aF1.0
aF1.0
aF1.0
aF1.5
aF1.0
aF1.0
aF1.0
aF1.0
aF1.0
aF1.0
aF1.0
aF1.0
aF1.0
aF1.0
aF1.5
aF1.0
aF1.0
aF1.0
aF1.0
aF1.0
aF1.0
aF1.0
aF1.0
aF1.0
aF1.0
aF1.0
aF1.0
aF1.0
aF1.0
aF1.0
aF1.0
aF1.0
aF1.0
aF1.0
aF1.0
aF1.0
aF1.0
aF1.0
aF1.0
aF1.0
aF1.0
aF1.0
aF1.0
aF1.0
aF1.0
aF1.0
aF1.0
aF1.0
aF1.0
aF1.0
aF1.0
aF1.0
aF1.0
aF1.0
aF1.0
aF1.0
aF1.0
aF1.0
aF1.0
aF1.0
aF1.0
aF1.0
aF1.0
aF1.0
aF1.0
aF1.0
aF1.0
aF1.0
aF1.0
aF1.0
aF1.0
aF1.0
aF1.0
aF1.0
aF1.0
aF1.0
aF1.0
aF1.0
aF1.0
aF1.0
aF1.0
aF1.0
aF1.0
aF1.0
aF1.0
aF1.0
aF1.0
aF1.0
aF1.0
aF1.0
aF1.0
aF1.0
aF1.0
aF1.0
aF1.0
aF1.0
aF1.0
aF1.0
aF1.0
aF1.0
aF1.0
aF1.0
aF1.0
aF1.0
aF1.0
aF1.0
aF1.0
aF1.0
aF1.0
aF1.0
aF1.0
aF1.0
aF1.0
aF1.0
aF1.0
aF1.0
aF1.0
aF1.0
aF1.0
aF1.0
aF1.0
aF1.0
aF1.0
aF1.0
aF1.0
aF1.0
aF1.0
aF1.0
aF1.0
aF1.0
aF1.0
aF1.0
aF1.0
aF1.0
aF1.0
aF1.0
aF1.0
aF1.0
aF1.0
aF1.5
aF1.7
aF1.0
aF1.0
aF1.0
aF1.0
aF1.0
aF1.0
aF1.0
aF1.0
aF1.0
aF1.0
aF1.0
aF1.0
aF1.0
aF1.0
aF1.0
aF1.0
aF1.0
aF1.0
aF1.0
aF1.0
aF1.0
aF1.0
aF1.0
aF1.0
aF1.0
aF1.0
aF1.0
aF1.0
aF1.0
aF1.0
aF1.0
aF1.0
aF1.0
aF1.0
aF1.0
aF1.0
aF1.0
aF1.0
aF1.0
aF1.0
aF1.0
aF1.0
aF1.0
aF1.0
aF1.0
aF1.0
aF1.0
aF1.0
aF1.0
aF1.0
aF1.0
aF1.0
aF1.0
aF1.0
aF1.0
aF1.0
aF1.0
aF1.0
aF1.0
aF1.0
aF1.0
aF1.0
aF1.0
aF1.0
aF1.0
aF1.0
aF1.0
aF1.0
aF1.0
aF1.0
aF1.0
aF1.0
aF1.0
aF1.0
aF1.0
aF1.0
aF1.0
aF1.0
aF1.0
aF1.0
aF1.0
aF1.0
aF1.0
aF1.0
aF1.0
aF1.0
aF1.0
aF1.0
aF1.0
aF1.0
aF1.0
aF1.0
aF1.0
aF1.0
aF1.0
aF1.0
aF1.0
aF1.0
aF1.0
aF1.0
aF1.0
aF1.0
aF1.0
aF1.0
aF1.0
aF1.0
aF1.0
aF1.0
aF1.0
aF1.0
aF1.0
aF1.0
aF1.0
aF1.0
aF1.0
aF1.0
aF1.0
aF1.0
aF1.0
aF1.0
aF1.0
aF1.0
aF1.0
aF1.0
aF1.0
aF1.0
aF1.0
aF1.0
aF1.0
aF1.0
aF1.0
aF1.0
aF1.0
aF1.0
aF1.0
aF1.0
aF1.0
aF1.0
aF1.0
aF1.0
aF1.0
aF1.0
aF1.0
aF1.0
aF1.0
aF1.0
aF1.0
aF1.0
aF1.0
aF1.0
aF1.0
aF1.0
aF1.0
aF1.0
aF1.0
aF1.0
aF1.0
aF1.0
aF1.0
aF1.0
aF1.0
aF1.0
aF1.0
aF1.0
aF1.0
aF1.0
aF1.0
aF1.0
aF1.0
aF1.0
aF1.0
aF1.0
aF1.0
aF1.0
aF1.0
aF1.0
aF1.0
aF1.0
aF1.0
aF1.0
aF1.0
aF1.0
aF1.0
aF1.0
aF1.0
aF1.0
aF1.0
aF1.0
aF1.0
aF1.0
aF1.0
aF1.0
aF1.0
aF1.0
aF1.0
aF1.0
aF1.0
aF1.0
aF1.0
aF1.0
aF1.0
aF1.0
aF1.0
aF1.0
aF1.0
aF1.0
aF1.0
aF1.0
aF1.0
aF1.0
aF1.0
aF1.0
aF1.0
aF1.0
aF1.0
aF1.0
aF1.0
aF1.0
aF1.0
aF1.0
aF1.0
aF1.0
aF1.0
aF1.0
aF1.0
aF1.0
aF1.0
aF1.0
aF1.0
aF1.0
aF1.0
aF1.0
aF1.0
aF1.0
aF1.0
aF1.0
aF1.0
aF1.0
aF1.0
aF1.0
aF1.0
aF1.0
aF1.0
aF1.0
aF1.0
aF1.0
aF1.0
aF1.0
aF1.0
aF1.0
aF1.0
aF1.0
aF1.0
aF1.0
aF1.0
aF1.0
aF1.0
aF1.0
aF1.0
aF1.0
aF1.0
aF1.0
aF1.0
aF1.0
aF1.0
aF1.0
aF1.0
aF1.0
aF1.0
aF1.0
aF1.0
aF1.0
aF1.0
aF1.0
aF1.0
aF1.0
aF1.0
aF1.0
aF1.0
aF1.0
aF1.0
aF1.0
aF1.0
aF1.0
aF1.0
aF1.0
aF1.0
aF1.0
aF1.0
aF1.0
aF1.0
aF1.0
aF1.0
aF1.0
aF1.0
aF1.0
aF1.0
aF1.0
aF1.0
aF1.0
aF1.0
aF1.0
aF1.0
aF1.0
aF1.0
aF1.0
aF1.0
aF1.0
aF1.0
aF1.0
aF1.0
aF1.0
aF1.0
aF1.0
aF1.0
aF1.0
aF1.0
aF1.0
aF1.0
aF1.0
aF1.0
aF1.0
aF1.0
aF1.0
aF1.0
aF1.0
aF1.0
aF1.0
aF1.0
aF1.0
aF1.0
aF1.0
aF1.0
aF1.0
aF1.0
aF1.0
aF1.0
aF1.0
aF1.0
aF1.0
aF1.0
aF1.0
aF1.0
aF1.0
aF1.0
aF1.0
aF1.0
aF1.0
aF1.0
aF1.0
aF1.0
aF1.0
aF1.0
aF1.0
aF1.0
aF1.0
aF1.0
aF1.0
aF1.0
aF1.0
aF1.0
aF1.0
aF1.0
aF1.0
aF1.0
aF1.0
aF1.0
aF1.0
aF1.0
aF1.0
aF1.0
aF1.0
aF1.0
aF1.0
aF1.0
aF1.0
aF1.0
aF1.0
aF1.0
aF1.0
aF1.0
aF1.0
aF1.0
aF1.0
aF1.0
aF1.0
aF1.0
aF1.0
aF1.0
aF1.0
aF1.0
aF1.0
aF1.0
aF1.0
aF1.0
aF1.0
aF1.0
aF1.0
aF1.0
aF1.0
aF1.0
aF1.0
aF1.0
aF1.0
aF1.0
aF1.0
aF1.0
aF1.0
aF1.0
aF1.0
aF1.0
aF1.0
aF1.0
aF1.0
aF1.0
aF1.0
aF1.0
aF1.0
aF1.0
aF1.0
aF1.0
aF1.0
aF1.0
aF1.0
aF1.0
aF1.0
aF1.0
aF1.0
aF1.0
asS'suv_low'
p21
(lp22
I184
aI184
aI184
aI199
aI208
aI208
aI208
aI208
aI208
aI208
aI208
aI208
aI208
aI208
aI208
aI203
aI203
aI203
aI163
aI163
aI163
aI163
aI163
aI163
aI163
aI163
aI163
aI163
aI163
aI163
aI149
aI149
aI149
aI149
aI149
aI149
aI149
aI149
aI149
aI149
aI149
aI174
aI174
aI174
aI174
aI172
aI172
aI172
aI258
aI172
aI172
aI172
aI172
aI172
aI172
aI172
aI172
aI173
aI173
aI259
aI173
aI173
aI173
aI173
aI173
aI173
aI173
aI173
aI173
aI156
aI156
aI156
aI156
aI156
aI156
aI156
aI156
aI156
aI156
aI156
aI186
aI186
aI186
aI186
aI186
aI186
aI186
aI186
aI186
aI186
aI186
aI186
aI186
aI170
aI170
aI170
aI170
aI170
aI170
aI170
aI170
aI170
aI170
aI170
aI170
aI172
aI172
aI172
aI172
aI172
aI172
aI172
aI172
aI172
aI172
aI172
aI176
aI176
aI176
aI176
aI176
aI176
aI176
aI176
aI176
aI186
aI186
aI186
aI151
aI151
aI151
aI150
aI150
aI150
aI150
aI150
aI170
aI170
aI170
aI170
aI170
aI173
aI173
aI173
aI173
aI173
aI173
aI173
aI173
aI173
aI173
aI173
aI173
aI157
aI157
aI157
aI157
aI157
aI157
aI157
aI185
aI185
aI185
aI182
aI182
aI182
aI182
aI182
aI182
aI182
aI182
aI182
aI182
aI182
aI181
aI181
aI181
aI181
aI173
aI173
aI173
aI173
aI173
aI173
aI259
aI294
aI173
aI173
aI150
aI150
aI150
aI150
aI150
aI150
aI150
aI150
aI150
aI150
aI150
aI150
aI150
aI150
aI150
aI150
aI150
aI150
aI150
aI150
aI173
aI173
aI180
aI173
aI173
aI173
aI173
aI173
aI173
aI173
aI173
aI173
aI170
aI170
aI170
aI170
aI170
aI170
aI170
aI170
aI175
aI175
aI175
aI157
aI181
aI181
aI181
aI181
aI181
aI181
aI181
aI181
aI181
aI181
aI179
aI179
aI190
aI190
aI156
aI156
aI156
aI156
aI156
aI156
aI172
aI172
aI172
aI172
aI172
aI172
aI172
aI172
aI152
aI152
aI152
aI152
aI152
aI152
aI152
aI152
aI152
aI152
aI152
aI152
aI153
aI153
aI153
aI153
aI153
aI153
aI153
aI153
aI152
aI152
aI152
aI152
aI152
aI169
aI169
aI169
aI169
aI169
aI169
aI169
aI169
aI169
aI169
aI157
aI157
aI186
aI186
aI186
aI186
aI186
aI186
aI186
aI186
aI186
aI186
aI186
aI186
aI183
aI183
aI183
aI183
aI183
aI183
aI183
aI183
aI183
aI183
aI183
aI183
aI179
aI179
aI179
aI179
aI179
aI179
aI179
aI179
aI179
aI179
aI179
aI179
aI179
aI179
aI179
aI179
aI179
aI179
aI179
aI179
aI179
aI179
aI179
aI179
aI154
aI154
aI154
aI154
aI154
aI167
aI167
aI167
aI167
aI167
aI167
aI167
aI167
aI167
aI167
aI167
aI167
aI167
aI175
aI175
aI175
aI173
aI173
aI173
aI173
aI173
aI173
aI173
aI173
aI173
aI173
aI173
aI173
aI165
aI165
aI165
aI165
aI165
aI152
aI152
aI152
aI152
aI152
aI152
aI152
aI152
aI152
aI152
aI152
aI152
aI151
aI151
aI151
aI151
aI151
aI151
aI151
aI151
aI151
aI151
aI151
aI151
aI150
aI150
aI150
aI150
aI150
aI150
aI176
aI176
aI176
aI176
aI176
aI176
aI176
aI183
aI183
aI183
aI183
aI183
aI183
aI183
aI183
aI183
aI183
aI183
aI180
aI176
aI176
aI176
aI176
aI176
aI176
aI187
aI187
aI187
aI187
aI175
aI175
aI175
aI175
aI175
aI151
aI151
aI151
aI151
aI151
aI151
aI151
aI151
aI151
aI151
aI176
aI176
aI176
aI176
aI176
aI176
aI176
aI173
aI173
aI173
aI173
aI173
aI173
aI173
aI173
aI173
aI173
aI173
aI173
aI173
aI171
aI171
aI171
aI171
aI171
aI171
aI171
aI171
aI150
aI150
aI150
aI150
aI150
aI150
aI150
aI161
aI161
aI161
aI161
aI161
aI161
aI173
aI173
aI173
aI173
aI173
aI170
aI170
aI170
aI170
aI170
aI170
aI170
aI170
aI170
aI170
aI170
aI170
aI175
aI175
aI175
aI175
aI175
aI175
aI175
aI171
aI171
aI171
aI182
aI182
aI182
aI182
aI182
aI182
aI182
aI182
aI182
aI182
aI182
aI182
aI181
aI181
aI181
aI181
aI181
aI152
aI152
aI152
aI152
aI152
aI152
aI150
aI150
aI150
aI150
aI150
aI150
aI150
aI150
aI150
aI150
aI150
aI150
aI172
aI172
aI172
aI172
aI172
aI172
aI172
aI172
aI172
aI172
aI174
aI174
aI174
aI174
aI174
aI174
aI174
aI174
aI185
aI185
aI185
aI185
aI173
aI173
aI173
aI174
aI174
aI174
aI174
aI174
aI174
aI174
aI174
aI174
aI174
aI197
aI197
aI197
aI180
aI175
aI175
aI175
aI175
aI175
aI175
aI173
aI173
aI173
aI173
aI173
aI173
aI173
aI180
aI173
aI173
asS'sedan_surge'
p23
(lp24
F1.0
aF1.0
aF1.0
aF1.0
aF1.0
aF1.0
aF1.0
aF1.0
aF1.0
aF1.0
aF1.0
aF1.0
aF1.0
aF1.0
aF1.0
aF1.0
aF1.0
aF1.0
aF1.0
aF1.0
aF1.0
aF1.0
aF1.0
aF1.0
aF1.0
aF1.0
aF1.0
aF1.0
aF1.0
aF1.0
aF1.0
aF1.0
aF1.0
aF1.0
aF1.0
aF1.0
aF1.0
aF1.0
aF1.0
aF1.0
aF1.0
aF1.0
aF1.0
aF1.0
aF1.0
aF1.0
aF1.0
aF1.0
aF1.5
aF1.0
aF1.0
aF1.0
aF1.0
aF1.0
aF1.0
aF1.0
aF1.0
aF1.0
aF1.0
aF1.5
aF1.0
aF1.0
aF1.0
aF1.0
aF1.0
aF1.0
aF1.0
aF1.0
aF1.0
aF1.0
aF1.0
aF1.0
aF1.0
aF1.0
aF1.0
aF1.0
aF1.0
aF1.0
aF1.0
aF1.0
aF1.0
aF1.0
aF1.0
aF1.0
aF1.0
aF1.0
aF1.0
aF1.0
aF1.0
aF1.0
aF1.0
aF1.0
aF1.0
aF1.0
aF1.0
aF1.0
aF1.0
aF1.0
aF1.0
aF1.0
aF1.0
aF1.0
aF1.0
aF1.0
aF1.0
aF1.0
aF1.0
aF1.0
aF1.0
aF1.0
aF1.0
aF1.0
aF1.0
aF1.0
aF1.0
aF1.0
aF1.0
aF1.0
aF1.0
aF1.0
aF1.0
aF1.0
aF1.0
aF1.0
aF1.0
aF1.0
aF1.0
aF1.0
aF1.0
aF1.0
aF1.0
aF1.0
aF1.0
aF1.0
aF1.0
aF1.0
aF1.0
aF1.0
aF1.0
aF1.0
aF1.0
aF1.0
aF1.0
aF1.0
aF1.0
aF1.0
aF1.0
aF1.0
aF1.0
aF1.0
aF1.0
aF1.0
aF1.0
aF1.0
aF1.0
aF1.0
aF1.0
aF1.0
aF1.0
aF1.0
aF1.0
aF1.0
aF1.0
aF1.0
aF1.0
aF1.0
aF1.0
aF1.0
aF1.0
aF1.0
aF1.0
aF1.0
aF1.0
aF1.0
aF1.0
aF1.0
aF1.0
aF1.0
aF1.0
aF1.0
aF1.0
aF1.0
aF1.0
aF1.0
aF1.5
aF1.7
aF1.0
aF1.0
aF1.0
aF1.0
aF1.0
aF1.0
aF1.0
aF1.0
aF1.0
aF1.0
aF1.0
aF1.0
aF1.0
aF1.0
aF1.0
aF1.0
aF1.0
aF1.0
aF1.0
aF1.0
aF1.0
aF1.0
aF1.0
aF1.0
aF1.0
aF1.0
aF1.0
aF1.0
aF1.0
aF1.0
aF1.0
aF1.0
aF1.0
aF1.0
aF1.0
aF1.0
aF1.0
aF1.0
aF1.0
aF1.0
aF1.0
aF1.0
aF1.0
aF1.0
aF1.0
aF1.0
aF1.0
aF1.0
aF1.0
aF1.0
aF1.0
aF1.0
aF1.0
aF1.0
aF1.0
aF1.0
aF1.0
aF1.0
aF1.0
aF1.0
aF1.0
aF1.0
aF1.0
aF1.0
aF1.0
aF1.0
aF1.0
aF1.0
aF1.0
aF1.0
aF1.0
aF1.0
aF1.0
aF1.0
aF1.0
aF1.0
aF1.0
aF1.0
aF1.0
aF1.0
aF1.0
aF1.0
aF1.0
aF1.0
aF1.0
aF1.0
aF1.0
aF1.0
aF1.0
aF1.0
aF1.0
aF1.0
aF1.0
aF1.0
aF1.0
aF1.0
aF1.0
aF1.0
aF1.0
aF1.0
aF1.0
aF1.0
aF1.0
aF1.0
aF1.0
aF1.0
aF1.0
aF1.0
aF1.0
aF1.0
aF1.0
aF1.0
aF1.0
aF1.0
aF1.0
aF1.0
aF1.0
aF1.0
aF1.0
aF1.0
aF1.0
aF1.0
aF1.0
aF1.0
aF1.0
aF1.0
aF1.0
aF1.0
aF1.0
aF1.0
aF1.0
aF1.0
aF1.0
aF1.0
aF1.0
aF1.0
aF1.0
aF1.0
aF1.0
aF1.0
aF1.0
aF1.0
aF1.0
aF1.0
aF1.0
aF1.0
aF1.0
aF1.0
aF1.0
aF1.0
aF1.0
aF1.0
aF1.0
aF1.0
aF1.0
aF1.0
aF1.0
aF1.0
aF1.0
aF1.0
aF1.0
aF1.0
aF1.0
aF1.0
aF1.0
aF1.0
aF1.0
aF1.0
aF1.0
aF1.0
aF1.0
aF1.0
aF1.0
aF1.0
aF1.0
aF1.0
aF1.0
aF1.0
aF1.0
aF1.0
aF1.0
aF1.0
aF1.0
aF1.0
aF1.0
aF1.0
aF1.0
aF1.0
aF1.0
aF1.0
aF1.0
aF1.0
aF1.0
aF1.0
aF1.0
aF1.0
aF1.0
aF1.0
aF1.0
aF1.0
aF1.0
aF1.0
aF1.0
aF1.0
aF1.0
aF1.0
aF1.0
aF1.0
aF1.0
aF1.0
aF1.0
aF1.0
aF1.0
aF1.0
aF1.0
aF1.0
aF1.0
aF1.0
aF1.0
aF1.0
aF1.0
aF1.0
aF1.0
aF1.0
aF1.0
aF1.0
aF1.0
aF1.0
aF1.0
aF1.0
aF1.0
aF1.0
aF1.0
aF1.0
aF1.0
aF1.0
aF1.0
aF1.0
aF1.0
aF1.0
aF1.0
aF1.0
aF1.0
aF1.0
aF1.0
aF1.0
aF1.0
aF1.0
aF1.0
aF1.0
aF1.0
aF1.0
aF1.0
aF1.0
aF1.0
aF1.0
aF1.0
aF1.0
aF1.0
aF1.0
aF1.0
aF1.0
aF1.0
aF1.0
aF1.0
aF1.0
aF1.0
aF1.0
aF1.0
aF1.0
aF1.0
aF1.0
aF1.0
aF1.0
aF1.0
aF1.0
aF1.0
aF1.0
aF1.0
aF1.0
aF1.0
aF1.0
aF1.0
aF1.0
aF1.0
aF1.0
aF1.0
aF1.0
aF1.0
aF1.0
aF1.0
aF1.0
aF1.0
aF1.0
aF1.0
aF1.0
aF1.0
aF1.0
aF1.0
aF1.0
aF1.0
aF1.0
aF1.0
aF1.0
aF1.0
aF1.0
aF1.0
aF1.0
aF1.0
aF1.0
aF1.0
aF1.0
aF1.0
aF1.0
aF1.0
aF1.0
aF1.0
aF1.0
aF1.0
aF1.0
aF1.0
aF1.0
aF1.0
aF1.0
aF1.0
aF1.0
aF1.0
aF1.0
aF1.0
aF1.0
aF1.0
aF1.0
aF1.0
aF1.0
aF1.0
aF1.0
aF1.0
aF1.0
aF1.0
aF1.0
aF1.0
aF1.0
aF1.0
aF1.0
aF1.0
aF1.0
aF1.0
aF1.0
aF1.0
aF1.0
aF1.0
aF1.0
aF1.0
aF1.0
aF1.0
aF1.0
aF1.0
aF1.0
aF1.0
aF1.0
aF1.0
aF1.0
aF1.0
aF1.0
aF1.0
aF1.0
aF1.0
aF1.0
aF1.0
aF1.0
aF1.0
aF1.0
aF1.0
aF1.0
aF1.0
aF1.0
aF1.0
aF1.0
aF1.0
aF1.0
aF1.0
aF1.0
aF1.0
aF1.0
aF1.0
aF1.0
aF1.0
aF1.0
aF1.0
aF1.0
aF1.0
aF1.0
aF1.0
aF1.0
aF1.0
aF1.0
aF1.0
aF1.0
aF1.0
aF1.0
aF1.0
aF1.0
aF1.0
aF1.0
aF1.0
aF1.0
aF1.0
aF1.0
aF1.0
aF1.0
aF1.0
aF1.0
aF1.0
aF1.0
aF1.0
aF1.0
aF1.0
aF1.0
aF1.0
aF1.0
aF1.0
aF1.0
aF1.0
aF1.0
aF1.0
aF1.0
aF1.0
aF1.0
aF1.0
asS'uberx_surge'
p25
(lp26
F1.0
aF1.0
aF1.0
aF1.4
aF1.3
aF1.0
aF1.0
aF1.0
aF1.0
aF1.0
aF1.0
aF1.0
aF1.0
aF1.0
aF1.0
aF1.0
aF1.0
aF1.0
aF1.0
aF1.0
aF1.0
aF1.0
aF1.0
aF1.0
aF1.0
aF1.0
aF1.0
aF1.0
aF1.0
aF1.0
aF1.0
aF1.0
aF1.0
aF1.0
aF1.0
aF1.0
aF1.0
aF1.0
aF1.0
aF1.0
aF1.0
aF1.0
aF1.0
aF1.5
aF1.5
aF1.0
aF1.0
aF1.0
aF1.0
aF1.0
aF1.0
aF1.0
aF1.0
aF1.0
aF1.0
aF1.0
aF1.0
aF1.0
aF1.0
aF1.0
aF1.2
aF1.4
aF1.3
aF1.0
aF1.0
aF1.0
aF1.0
aF1.0
aF1.0
aF1.0
aF1.0
aF1.0
aF1.0
aF1.0
aF1.5
aF2.1
aF1.4
aF1.0
aF1.0
aF1.0
aF1.0
aF1.5
aF1.0
aF1.5
aF1.5
aF1.0
aF1.0
aF1.0
aF1.0
aF1.5
aF2.1
aF1.4
aF1.0
aF1.0
aF1.0
aF1.0
aF1.0
aF1.0
aF1.0
aF1.0
aF1.0
aF1.0
aF1.0
aF1.0
aF1.0
aF1.0
aF1.0
aF1.0
aF1.0
aF1.0
aF1.0
aF1.0
aF1.0
aF1.5
aF1.3
aF1.0
aF1.0
aF1.0
aF1.0
aF1.0
aF1.0
aF1.0
aF1.0
aF1.0
aF1.0
aF1.0
aF1.0
aF1.0
aF1.0
aF1.0
aF1.0
aF1.0
aF1.0
aF1.0
aF1.0
aF1.0
aF1.0
aF1.0
aF1.0
aF1.0
aF1.0
aF1.0
aF1.0
aF1.0
aF1.0
aF1.0
aF1.0
aF1.0
aF1.0
aF1.0
aF1.0
aF1.0
aF1.0
aF1.5
aF1.0
aF1.0
aF1.0
aF1.5
aF1.2
aF1.2
aF1.0
aF1.0
aF1.0
aF1.0
aF1.0
aF1.0
aF1.0
aF1.5
aF2.1
aF1.4
aF1.0
aF1.0
aF1.0
aF1.0
aF1.0
aF1.0
aF1.0
aF1.0
aF1.0
aF1.0
aF1.0
aF1.0
aF1.0
aF1.0
aF1.0
aF1.0
aF1.0
aF1.0
aF1.0
aF1.0
aF1.0
aF1.0
aF1.0
aF1.0
aF1.5
aF2.1
aF1.5
aF1.0
aF1.0
aF1.0
aF1.0
aF1.0
aF1.0
aF1.0
aF1.0
aF1.0
aF1.0
aF1.4
aI2
aF2.7
aF1.9
aF1.2
aF1.0
aF1.0
aF1.0
aF1.0
aF1.0
aF1.0
aF1.0
aF1.0
aF1.0
aF1.0
aF1.0
aF1.0
aF1.0
aF1.0
aF1.0
aF1.0
aF1.0
aF1.0
aF1.0
aF1.0
aF1.4
aF1.0
aF1.0
aF1.0
aF1.0
aF1.0
aF1.0
aF1.0
aF1.0
aF1.0
aF1.0
aF1.0
aF1.0
aF1.0
aF1.0
aF1.0
aF1.0
aF1.0
aF1.0
aF1.0
aF1.0
aF1.0
aF1.0
aF1.0
aF1.0
aF1.0
aF1.0
aF1.0
aF1.0
aF1.0
aF1.0
aF1.0
aF1.0
aF1.0
aF1.0
aF1.0
aF1.0
aF1.0
aF1.0
aF1.0
aF1.5
aF2.1
aF1.8
aF1.0
aF1.0
aF1.0
aF1.8
aF1.0
aF1.0
aF1.0
aF1.0
aF1.0
aF1.0
aF1.0
aF1.0
aF1.0
aF1.0
aF1.0
aF1.0
aF1.0
aF1.0
aF1.0
aF1.0
aF1.0
aF1.0
aF1.0
aF1.0
aF1.0
aF1.0
aF1.0
aF1.4
aF1.0
aF1.0
aF1.0
aF1.5
aF1.0
aF1.0
aF1.0
aF1.0
aF1.4
aF1.0
aF1.0
aF1.0
aF1.0
aF1.0
aF1.0
aF1.0
aF1.0
aF1.0
aF1.0
aF1.0
aF1.0
aF1.0
aF1.0
aF1.0
aF1.0
aF1.0
aF1.0
aF1.0
aF1.0
aF1.0
aF1.0
aF1.0
aF1.0
aF1.0
aF1.0
aF1.0
aF1.0
aF1.0
aF1.0
aF1.0
aF1.0
aF1.0
aF1.0
aF1.0
aF1.0
aF1.0
aF1.0
aF1.0
aF1.0
aF1.0
aF1.0
aF1.0
aF1.0
aF1.0
aF1.0
aF1.0
aF1.0
aF1.0
aF1.0
aF1.0
aF1.0
aF1.0
aF1.0
aF1.0
aF1.0
aF1.0
aF1.0
aF1.0
aF1.0
aF1.0
aF1.0
aF1.0
aF1.0
aF1.0
aF1.0
aF1.0
aF1.0
aF1.0
aF1.0
aF1.0
aF1.0
aF1.0
aF1.0
aF1.0
aF1.0
aF1.0
aF1.0
aF1.0
aF1.0
aF1.0
aF1.0
aF1.0
aF1.0
aF1.0
aF1.0
aF1.0
aF1.0
aF1.0
aF1.0
aF1.0
aF1.0
aF1.0
aF1.0
aF1.0
aF1.0
aF1.0
aF1.0
aF1.0
aF1.0
aF1.0
aF1.0
aF1.0
aF1.0
aF1.0
aF1.0
aF1.0
aF1.0
aF1.0
aF1.0
aF1.0
aF1.0
aF1.0
aF1.0
aF1.0
aF1.0
aF1.0
aF1.0
aF1.0
aF1.0
aF1.0
aF1.0
aF1.0
aF1.0
aF1.0
aF1.0
aF1.0
aF1.0
aF1.0
aF1.0
aF1.0
aF1.0
aF1.0
aF1.0
aF1.0
aF1.0
aF1.0
aF1.0
aF1.0
aF1.0
aF1.0
aF1.0
aF1.0
aF1.0
aF1.0
aF1.0
aF1.0
aF1.0
aF1.0
aF1.0
aF1.0
aF1.0
aF1.0
aF1.0
aF1.0
aF1.0
aF1.0
aF1.0
aF1.0
aF1.0
aF1.0
aF1.0
aF1.0
aF1.0
aF1.0
aF1.0
aF1.0
aF1.0
aF1.0
aF1.0
aF1.0
aF1.0
aF1.0
aF1.0
aF1.0
aF1.0
aF1.0
aF1.0
aF1.0
aF1.0
aF1.0
aF1.0
aF1.0
aF1.0
aF1.0
aF1.0
aF1.0
aF1.0
aF1.0
aF1.0
aF1.0
aF1.0
aF1.0
aF1.0
aF1.0
aF1.0
aF1.0
aF1.0
aF1.0
aF1.0
aF1.0
aF1.0
aF1.0
aF1.0
aF1.0
aF1.0
aF1.0
aF1.0
aF1.0
aF1.0
aF1.0
aF1.0
aF1.0
aF1.0
aF1.0
aF1.0
aF1.0
aF1.0
aF1.0
aF1.0
aF1.0
aF1.0
aF1.0
aF1.0
aF1.0
aF1.0
aF1.0
aF1.0
aF1.0
aF1.0
aF1.0
aF1.0
aF1.0
aF1.0
aF1.0
aF1.0
aF1.0
aF1.0
aF1.0
aF1.0
aF1.0
aF1.0
aF1.0
aF1.0
aF1.0
aF1.0
aF1.0
aF1.0
aF1.0
aF1.0
aF1.0
aF1.0
aF1.0
aF1.0
aF1.0
aF1.0
aF1.0
aF1.0
aF1.0
aF1.0
aF1.0
aF1.0
aF1.0
aF1.0
aF1.0
aF1.0
aF1.0
aF1.0
aF1.0
aF1.0
aF1.0
aF1.0
aF1.0
aF1.0
aF1.0
aF1.0
aF1.0
aF1.0
aF1.0
aF1.0
aF1.0
aF1.0
aF1.0
aF1.0
aF1.0
aF1.0
aF1.0
aF1.0
aF1.0
aF1.0
aF1.0
aF1.0
aF1.0
aF1.0
aF1.0
aF1.0
aF1.0
aF1.0
aF1.0
aF1.0
aF1.0
aF1.0
aF1.0
asS'black_low'
p27
(lp28
I184
aI184
aI184
aI199
aI208
aI208
aI208
aI208
aI208
aI208
aI208
aI208
aI208
aI208
aI208
aI203
aI203
aI203
aI163
aI163
aI163
aI163
aI163
aI163
aI163
aI163
aI163
aI163
aI163
aI163
aI149
aI149
aI149
aI149
aI149
aI149
aI149
aI149
aI149
aI149
aI149
aI174
aI174
aI174
aI174
aI172
aI172
aI172
aI258
aI172
aI172
aI172
aI172
aI172
aI172
aI172
aI172
aI173
aI173
aI259
aI173
aI173
aI173
aI173
aI173
aI173
aI173
aI173
aI173
aI156
aI156
aI156
aI156
aI156
aI156
aI156
aI156
aI156
aI156
aI156
aI186
aI186
aI186
aI186
aI186
aI186
aI186
aI186
aI186
aI186
aI186
aI186
aI186
aI170
aI170
aI170
aI170
aI170
aI170
aI170
aI170
aI170
aI170
aI170
aI170
aI172
aI172
aI172
aI172
aI172
aI172
aI172
aI172
aI172
aI172
aI172
aI176
aI176
aI176
aI176
aI176
aI176
aI176
aI176
aI176
aI186
aI186
aI186
aI151
aI151
aI151
aI150
aI150
aI150
aI150
aI150
aI170
aI170
aI170
aI170
aI170
aI173
aI173
aI173
aI173
aI173
aI173
aI173
aI173
aI173
aI173
aI173
aI173
aI157
aI157
aI157
aI157
aI157
aI157
aI157
aI185
aI185
aI185
aI182
aI182
aI182
aI182
aI182
aI182
aI182
aI182
aI182
aI182
aI182
aI181
aI181
aI181
aI181
aI173
aI173
aI173
aI173
aI173
aI173
aI259
aI294
aI173
aI173
aI150
aI150
aI150
aI150
aI150
aI150
aI150
aI150
aI150
aI150
aI150
aI150
aI150
aI150
aI150
aI150
aI150
aI150
aI150
aI150
aI173
aI173
aI180
aI173
aI173
aI173
aI173
aI173
aI173
aI173
aI173
aI173
aI170
aI170
aI170
aI170
aI170
aI170
aI170
aI170
aI175
aI175
aI175
aI157
aI181
aI181
aI181
aI181
aI181
aI181
aI181
aI181
aI181
aI181
aI179
aI179
aI190
aI190
aI156
aI156
aI156
aI156
aI156
aI156
aI172
aI172
aI172
aI172
aI172
aI172
aI172
aI172
aI152
aI152
aI152
aI152
aI152
aI152
aI152
aI152
aI152
aI152
aI152
aI152
aI153
aI153
aI153
aI153
aI153
aI153
aI153
aI153
aI152
aI152
aI152
aI152
aI152
aI169
aI169
aI169
aI169
aI169
aI169
aI169
aI169
aI169
aI169
aI157
aI157
aI186
aI186
aI186
aI186
aI186
aI186
aI186
aI186
aI186
aI186
aI186
aI186
aI183
aI183
aI183
aI183
aI183
aI183
aI183
aI183
aI183
aI183
aI183
aI183
aI179
aI179
aI179
aI179
aI179
aI179
aI179
aI179
aI179
aI179
aI179
aI179
aI179
aI179
aI179
aI179
aI179
aI179
aI179
aI179
aI179
aI179
aI179
aI179
aI154
aI154
aI154
aI154
aI154
aI167
aI167
aI167
aI167
aI167
aI167
aI167
aI167
aI167
aI167
aI167
aI167
aI167
aI175
aI175
aI175
aI173
aI173
aI173
aI173
aI173
aI173
aI173
aI173
aI173
aI173
aI173
aI173
aI165
aI165
aI165
aI165
aI165
aI152
aI152
aI152
aI152
aI152
aI152
aI152
aI152
aI152
aI152
aI152
aI152
aI151
aI151
aI151
aI151
aI151
aI151
aI151
aI151
aI151
aI151
aI151
aI151
aI150
aI150
aI150
aI150
aI150
aI150
aI176
aI176
aI176
aI176
aI176
aI176
aI176
aI183
aI183
aI183
aI183
aI183
aI183
aI183
aI183
aI183
aI183
aI183
aI180
aI176
aI176
aI176
aI176
aI176
aI176
aI187
aI187
aI187
aI187
aI175
aI175
aI175
aI175
aI175
aI151
aI151
aI151
aI151
aI151
aI151
aI151
aI151
aI151
aI151
aI176
aI176
aI176
aI176
aI176
aI176
aI176
aI173
aI173
aI173
aI173
aI173
aI173
aI173
aI173
aI173
aI173
aI173
aI173
aI173
aI171
aI171
aI171
aI171
aI171
aI171
aI171
aI171
aI150
aI150
aI150
aI150
aI150
aI150
aI150
aI161
aI161
aI161
aI161
aI161
aI161
aI173
aI173
aI173
aI173
aI173
aI170
aI170
aI170
aI170
aI170
aI170
aI170
aI170
aI170
aI170
aI170
aI170
aI175
aI175
aI175
aI175
aI175
aI175
aI175
aI171
aI171
aI171
aI182
aI182
aI182
aI182
aI182
aI182
aI182
aI182
aI182
aI182
aI182
aI182
aI181
aI181
aI181
aI181
aI181
aI152
aI152
aI152
aI152
aI152
aI152
aI150
aI150
aI150
aI150
aI150
aI150
aI150
aI150
aI150
aI150
aI150
aI150
aI172
aI172
aI172
aI172
aI172
aI172
aI172
aI172
aI172
aI172
aI174
aI174
aI174
aI174
aI174
aI174
aI174
aI174
aI185
aI185
aI185
aI185
aI173
aI173
aI173
aI174
aI174
aI174
aI174
aI174
aI174
aI174
aI174
aI174
aI174
aI197
aI197
aI197
aI180
aI175
aI175
aI175
aI175
aI175
aI175
aI173
aI173
aI173
aI173
aI173
aI173
aI173
aI180
aI173
aI173
asS'uberx_low'
p29
(lp30
I72
aI72
aI72
aI108
aI105
aI80
aI80
aI80
aI80
aI80
aI80
aI80
aI80
aI80
aI80
aI79
aI79
aI79
aI64
aI64
aI64
aI64
aI64
aI64
aI64
aI64
aI64
aI64
aI64
aI64
aI59
aI59
aI59
aI59
aI59
aI59
aI59
aI59
aI59
aI59
aI59
aI67
aI67
aI101
aI101
aI67
aI67
aI67
aI67
aI67
aI67
aI67
aI67
aI67
aI67
aI67
aI67
aI67
aI67
aI67
aI80
aI94
aI87
aI67
aI67
aI67
aI67
aI67
aI67
aI62
aI62
aI62
aI62
aI62
aI93
aI130
aI86
aI62
aI62
aI62
aI72
aI109
aI72
aI109
aI109
aI72
aI72
aI72
aI72
aI109
aI152
aI101
aI72
aI66
aI66
aI66
aI66
aI66
aI66
aI66
aI66
aI66
aI66
aI66
aI66
aI67
aI67
aI67
aI67
aI67
aI67
aI67
aI67
aI101
aI88
aI67
aI68
aI68
aI68
aI68
aI68
aI68
aI68
aI68
aI68
aI72
aI72
aI72
aI59
aI59
aI59
aI59
aI59
aI59
aI59
aI59
aI66
aI66
aI66
aI66
aI66
aI67
aI67
aI67
aI67
aI67
aI67
aI67
aI67
aI67
aI67
aI67
aI67
aI93
aI62
aI62
aI62
aI93
aI74
aI74
aI72
aI72
aI72
aI71
aI71
aI71
aI71
aI107
aI150
aI100
aI71
aI71
aI71
aI71
aI71
aI71
aI71
aI71
aI67
aI67
aI67
aI67
aI67
aI67
aI67
aI67
aI67
aI67
aI59
aI59
aI59
aI59
aI59
aI59
aI89
aI125
aI89
aI59
aI59
aI59
aI59
aI59
aI59
aI59
aI59
aI59
aI59
aI83
aI134
aI181
aI133
aI80
aI67
aI67
aI67
aI67
aI67
aI67
aI67
aI67
aI66
aI66
aI66
aI66
aI66
aI66
aI66
aI66
aI68
aI68
aI68
aI62
aI99
aI70
aI70
aI70
aI70
aI70
aI70
aI70
aI70
aI70
aI70
aI70
aI74
aI74
aI62
aI62
aI62
aI62
aI62
aI62
aI67
aI67
aI67
aI67
aI67
aI67
aI67
aI67
aI60
aI60
aI60
aI60
aI60
aI60
aI60
aI60
aI60
aI60
aI60
aI60
aI90
aI127
aI109
aI60
aI60
aI60
aI109
aI60
aI60
aI60
aI60
aI60
aI60
aI66
aI66
aI66
aI66
aI66
aI66
aI66
aI66
aI66
aI66
aI62
aI62
aI72
aI72
aI72
aI72
aI72
aI102
aI72
aI72
aI72
aI109
aI72
aI72
aI72
aI72
aI101
aI72
aI72
aI72
aI72
aI72
aI72
aI72
aI72
aI72
aI70
aI70
aI70
aI70
aI70
aI70
aI70
aI70
aI70
aI70
aI70
aI70
aI70
aI70
aI70
aI70
aI70
aI70
aI70
aI70
aI70
aI70
aI70
aI70
aI61
aI61
aI61
aI61
aI61
aI65
aI65
aI65
aI65
aI65
aI65
aI65
aI65
aI65
aI65
aI65
aI65
aI65
aI69
aI69
aI69
aI68
aI68
aI68
aI68
aI68
aI68
aI68
aI68
aI68
aI68
aI68
aI68
aI65
aI65
aI65
aI65
aI65
aI60
aI60
aI60
aI60
aI60
aI60
aI60
aI60
aI60
aI60
aI60
aI60
aI60
aI60
aI60
aI60
aI60
aI60
aI60
aI60
aI60
aI60
aI60
aI60
aI59
aI59
aI59
aI59
aI59
aI59
aI69
aI69
aI69
aI69
aI69
aI69
aI69
aI71
aI71
aI71
aI71
aI71
aI71
aI71
aI71
aI71
aI71
aI71
aI70
aI69
aI69
aI69
aI69
aI69
aI69
aI73
aI73
aI73
aI73
aI68
aI68
aI68
aI68
aI68
aI60
aI60
aI60
aI60
aI60
aI60
aI60
aI60
aI60
aI60
aI68
aI68
aI68
aI68
aI68
aI68
aI68
aI68
aI68
aI68
aI68
aI68
aI68
aI68
aI68
aI68
aI68
aI68
aI68
aI68
aI66
aI66
aI66
aI66
aI66
aI66
aI66
aI66
aI59
aI59
aI59
aI59
aI59
aI59
aI59
aI63
aI63
aI63
aI63
aI63
aI63
aI67
aI67
aI67
aI67
aI67
aI66
aI66
aI66
aI66
aI66
aI66
aI66
aI66
aI66
aI66
aI66
aI66
aI68
aI68
aI68
aI68
aI68
aI68
aI68
aI68
aI68
aI68
aI71
aI71
aI71
aI71
aI71
aI71
aI71
aI71
aI71
aI71
aI71
aI71
aI70
aI70
aI70
aI70
aI70
aI60
aI60
aI60
aI60
aI60
aI60
aI59
aI59
aI59
aI59
aI59
aI59
aI59
aI59
aI59
aI59
aI59
aI59
aI67
aI67
aI67
aI67
aI67
aI67
aI67
aI67
aI67
aI67
aI67
aI67
aI67
aI67
aI67
aI67
aI67
aI67
aI72
aI72
aI72
aI72
aI67
aI67
aI67
aI69
aI69
aI69
aI69
aI69
aI69
aI69
aI69
aI69
aI69
aI76
aI76
aI76
aI70
aI69
aI69
aI69
aI69
aI69
aI69
aI68
aI68
aI68
aI68
aI68
aI68
aI68
aI70
aI68
aI68
asbag1
(g2
g3
Ntp31
Rp32
(dp33
g7
(lp34
I538
aI538
aI538
aI532
aI495
aI495
aI495
aI495
aI495
aI495
aI495
aI495
aI495
aI495
aI495
aI490
aI490
aI490
aI550
aI550
aI550
aI550
aI550
aI550
aI550
aI550
aI550
aI550
aI550
aI550
aI550
aI550
aI550
aI550
aI550
aI550
aI550
aI550
aI550
aI550
aI550
aI548
aI548
aI548
aI548
aI536
aI536
aI536
aI779
aI536
aI536
aI536
aI536
aI536
aI536
aI536
aI536
aI546
aI546
aI789
aI546
aI546
aI546
aI546
aI546
aI546
aI546
aI546
aI546
aI551
aI551
aI551
aI551
aI551
aI551
aI551
aI551
aI551
aI551
aI551
aI691
aI691
aI691
aI691
aI691
aI691
aI691
aI691
aI691
aI691
aI691
aI691
aI691
aI556
aI556
aI556
aI556
aI556
aI556
aI556
aI556
aI556
aI556
aI556
aI556
aI556
aI556
aI556
aI556
aI556
aI556
aI556
aI556
aI556
aI556
aI556
aI556
aI553
aI553
aI553
aI553
aI553
aI553
aI553
aI553
aI613
aI613
aI613
aI534
aI534
aI534
aI532
aI532
aI532
aI532
aI532
aI537
aI537
aI537
aI537
aI537
aI548
aI548
aI548
aI548
aI548
aI548
aI569
aI548
aI548
aI548
aI548
aI548
aI552
aI552
aI552
aI552
aI552
aI552
aI552
aI630
aI630
aI630
aI589
aI589
aI589
aI589
aI589
aI589
aI589
aI589
aI589
aI589
aI589
aI573
aI573
aI573
aI573
aI537
aI537
aI537
aI537
aI537
aI537
aI775
aI871
aI537
aI537
aI533
aI533
aI533
aI533
aI533
aI533
aI533
aI533
aI536
aI536
aI536
aI536
aI536
aI536
aI536
aI536
aI536
aI536
aI536
aI536
aI524
aI524
aI524
aI524
aI524
aI524
aI524
aI524
aI524
aI524
aI524
aI524
aI536
aI536
aI536
aI536
aI536
aI536
aI536
aI536
aI547
aI547
aI547
aI562
aI565
aI565
aI565
aI565
aI565
aI565
aI565
aI565
aI565
aI565
aI463
aI463
aI469
aI469
aI565
aI565
aI565
aI565
aI565
aI565
aI536
aI536
aI536
aI536
aI536
aI536
aI536
aI536
aI536
aI536
aI536
aI536
aI536
aI536
aI536
aI536
aI536
aI536
aI536
aI536
aI533
aI533
aI533
aI533
aI533
aI533
aI533
aI533
aI532
aI532
aI532
aI532
aI532
aI537
aI537
aI537
aI537
aI537
aI537
aI537
aI537
aI537
aI537
aI560
aI560
aI767
aI767
aI767
aI767
aI767
aI767
aI767
aI767
aI767
aI767
aI767
aI767
aI655
aI655
aI655
aI655
aI655
aI655
aI655
aI655
aI655
aI655
aI655
aI655
aI617
aI617
aI617
aI617
aI617
aI617
aI617
aI617
aI617
aI617
aI617
aI573
aI573
aI573
aI573
aI573
aI573
aI573
aI573
aI573
aI573
aI573
aI573
aI573
aI530
aI530
aI530
aI530
aI530
aI531
aI531
aI531
aI531
aI531
aI531
aI531
aI531
aI531
aI531
aI531
aI531
aI547
aI580
aI580
aI580
aI567
aI567
aI567
aI567
aI567
aI567
aI567
aI567
aI567
aI567
aI567
aI567
aI566
aI566
aI566
aI566
aI566
aI543
aI543
aI543
aI543
aI543
aI543
aI543
aI543
aI543
aI543
aI543
aI543
aI535
aI535
aI535
aI535
aI535
aI535
aI535
aI535
aI535
aI535
aI535
aI535
aI531
aI531
aI531
aI531
aI531
aI531
aI587
aI587
aI587
aI587
aI587
aI587
aI587
aI587
aI587
aI587
aI587
aI587
aI587
aI587
aI587
aI587
aI587
aI587
aI664
aI664
aI664
aI664
aI664
aI664
aI664
aI715
aI715
aI715
aI715
aI537
aI537
aI537
aI537
aI537
aI535
aI535
aI535
aI535
aI535
aI535
aI535
aI535
aI535
aI535
aI553
aI553
aI553
aI553
aI553
aI553
aI553
aI608
aI608
aI608
aI608
aI608
aI608
aI608
aI608
aI608
aI608
aI608
aI608
aI608
aI550
aI550
aI550
aI550
aI550
aI550
aI550
aI550
aI536
aI536
aI536
aI536
aI536
aI536
aI536
aI565
aI565
aI565
aI565
aI565
aI565
aI524
aI524
aI524
aI524
aI524
aI536
aI536
aI536
aI536
aI536
aI536
aI536
aI536
aI536
aI536
aI536
aI536
aI547
aI547
aI547
aI547
aI547
aI547
aI547
aI625
aI625
aI625
aI581
aI581
aI581
aI581
aI581
aI581
aI581
aI581
aI581
aI581
aI581
aI581
aI565
aI565
aI565
aI565
aI565
aI532
aI532
aI532
aI532
aI532
aI532
aI535
aI535
aI535
aI535
aI535
aI535
aI535
aI535
aI535
aI535
aI535
aI535
aI524
aI524
aI524
aI524
aI524
aI524
aI524
aI524
aI524
aI524
aI545
aI545
aI545
aI545
aI545
aI545
aI545
aI545
aI509
aI509
aI509
aI509
aI546
aI546
aI546
aI632
aI632
aI632
aI632
aI632
aI632
aI632
aI632
aI632
aI632
aI636
aI547
aI636
aI580
aI580
aI580
aI580
aI580
aI580
aI580
aI567
aI567
aI567
aI567
aI567
aI567
aI567
aI567
aI567
aI567
asg9
(lp35
F1.0
aF1.0
aF1.0
aF1.0
aF1.0
aF1.0
aF1.0
aF1.0
aF1.0
aF1.0
aF1.0
aF1.0
aF1.0
aF1.0
aF1.0
aF1.0
aF1.0
aF1.0
aF1.0
aF1.0
aF1.0
aF1.0
aF1.0
aF1.0
aF1.0
aF1.0
aF1.0
aF1.0
aF1.0
aF1.0
aF1.0
aF1.0
aF1.0
aF1.0
aF1.0
aF1.0
aF1.0
aF1.0
aF1.0
aF1.0
aF1.0
aF1.0
aF1.0
aF1.0
aF1.0
aF1.0
aF1.0
aF1.0
aF1.5
aF1.0
aF1.0
aF1.0
aF1.0
aF1.0
aF1.0
aF1.0
aF1.0
aF1.0
aF1.0
aF1.5
aF1.0
aF1.0
aF1.0
aF1.0
aF1.0
aF1.0
aF1.0
aF1.0
aF1.0
aF1.0
aF1.0
aF1.0
aF1.0
aF1.0
aF1.0
aF1.0
aF1.0
aF1.0
aF1.0
aF1.0
aF1.0
aF1.0
aF1.0
aF1.0
aF1.0
aF1.0
aF1.0
aF1.0
aF1.0
aF1.0
aF1.0
aF1.0
aF1.0
aF1.0
aF1.0
aF1.0
aF1.0
aF1.0
aF1.0
aF1.0
aF1.0
aF1.0
aF1.0
aF1.0
aF1.0
aF1.0
aF1.0
aF1.0
aF1.0
aF1.0
aF1.0
aF1.0
aF1.0
aF1.0
aF1.0
aF1.0
aF1.0
aF1.0
aF1.0
aF1.0
aF1.0
aF1.0
aF1.0
aF1.0
aF1.0
aF1.0
aF1.0
aF1.0
aF1.0
aF1.0
aF1.0
aF1.0
aF1.0
aF1.0
aF1.0
aF1.0
aF1.0
aF1.0
aF1.0
aF1.0
aF1.0
aF1.0
aF1.0
aF1.0
aF1.0
aF1.0
aF1.0
aF1.0
aF1.0
aF1.0
aF1.0
aF1.0
aF1.0
aF1.0
aF1.0
aF1.0
aF1.0
aF1.0
aF1.0
aF1.0
aF1.0
aF1.0
aF1.0
aF1.0
aF1.0
aF1.0
aF1.0
aF1.0
aF1.0
aF1.0
aF1.0
aF1.0
aF1.0
aF1.0
aF1.0
aF1.0
aF1.0
aF1.0
aF1.0
aF1.0
aF1.0
aF1.0
aF1.0
aF1.0
aF1.5
aF1.7
aF1.0
aF1.0
aF1.0
aF1.0
aF1.0
aF1.0
aF1.0
aF1.0
aF1.0
aF1.0
aF1.0
aF1.0
aF1.0
aF1.0
aF1.0
aF1.0
aF1.0
aF1.0
aF1.0
aF1.0
aF1.0
aF1.0
aF1.0
aF1.0
aF1.0
aF1.0
aF1.0
aF1.0
aF1.0
aF1.0
aF1.0
aF1.0
aF1.0
aF1.0
aF1.0
aF1.0
aF1.0
aF1.0
aF1.0
aF1.0
aF1.0
aF1.0
aF1.0
aF1.0
aF1.0
aF1.0
aF1.0
aF1.0
aF1.0
aF1.0
aF1.0
aF1.0
aF1.0
aF1.0
aF1.0
aF1.0
aF1.0
aF1.0
aF1.0
aF1.0
aF1.0
aF1.0
aF1.0
aF1.0
aF1.0
aF1.0
aF1.0
aF1.0
aF1.0
aF1.0
aF1.0
aF1.0
aF1.0
aF1.0
aF1.0
aF1.0
aF1.0
aF1.0
aF1.0
aF1.0
aF1.0
aF1.0
aF1.0
aF1.0
aF1.0
aF1.0
aF1.0
aF1.0
aF1.0
aF1.0
aF1.0
aF1.0
aF1.0
aF1.0
aF1.0
aF1.0
aF1.0
aF1.0
aF1.0
aF1.0
aF1.0
aF1.0
aF1.0
aF1.0
aF1.0
aF1.0
aF1.0
aF1.0
aF1.0
aF1.0
aF1.0
aF1.0
aF1.0
aF1.0
aF1.0
aF1.0
aF1.0
aF1.0
aF1.0
aF1.0
aF1.0
aF1.0
aF1.0
aF1.0
aF1.0
aF1.0
aF1.0
aF1.0
aF1.0
aF1.0
aF1.0
aF1.0
aF1.0
aF1.0
aF1.0
aF1.0
aF1.0
aF1.0
aF1.0
aF1.0
aF1.0
aF1.0
aF1.0
aF1.0
aF1.0
aF1.0
aF1.0
aF1.0
aF1.0
aF1.0
aF1.0
aF1.0
aF1.0
aF1.0
aF1.0
aF1.0
aF1.0
aF1.0
aF1.0
aF1.0
aF1.0
aF1.0
aF1.0
aF1.0
aF1.0
aF1.0
aF1.0
aF1.0
aF1.0
aF1.0
aF1.0
aF1.0
aF1.0
aF1.0
aF1.0
aF1.0
aF1.0
aF1.0
aF1.0
aF1.0
aF1.0
aF1.0
aF1.0
aF1.0
aF1.0
aF1.0
aF1.0
aF1.0
aF1.0
aF1.0
aF1.0
aF1.0
aF1.0
aF1.0
aF1.0
aF1.0
aF1.0
aF1.0
aF1.0
aF1.0
aF1.0
aF1.0
aF1.0
aF1.0
aF1.0
aF1.0
aF1.0
aF1.0
aF1.0
aF1.0
aF1.0
aF1.0
aF1.0
aF1.0
aF1.0
aF1.0
aF1.0
aF1.0
aF1.0
aF1.0
aF1.0
aF1.0
aF1.0
aF1.0
aF1.0
aF1.0
aF1.0
aF1.0
aF1.0
aF1.0
aF1.0
aF1.0
aF1.0
aF1.0
aF1.0
aF1.0
aF1.0
aF1.0
aF1.0
aF1.0
aF1.0
aF1.0
aF1.0
aF1.0
aF1.0
aF1.0
aF1.0
aF1.0
aF1.0
aF1.0
aF1.0
aF1.0
aF1.0
aF1.0
aF1.0
aF1.0
aF1.0
aF1.0
aF1.0
aF1.0
aF1.0
aF1.0
aF1.0
aF1.0
aF1.0
aF1.0
aF1.0
aF1.0
aF1.0
aF1.0
aF1.0
aF1.0
aF1.0
aF1.0
aF1.0
aF1.0
aF1.0
aF1.0
aF1.0
aF1.0
aF1.0
aF1.0
aF1.0
aF1.0
aF1.0
aF1.0
aF1.0
aF1.0
aF1.0
aF1.0
aF1.0
aF1.0
aF1.0
aF1.0
aF1.0
aF1.0
aF1.0
aF1.0
aF1.0
aF1.0
aF1.0
aF1.0
aF1.0
aF1.0
aF1.0
aF1.0
aF1.0
aF1.0
aF1.0
aF1.0
aF1.0
aF1.0
aF1.0
aF1.0
aF1.0
aF1.0
aF1.0
aF1.0
aF1.0
aF1.0
aF1.0
aF1.0
aF1.0
aF1.0
aF1.0
aF1.0
aF1.0
aF1.0
aF1.0
aF1.0
aF1.0
aF1.0
aF1.0
aF1.0
aF1.0
aF1.0
aF1.0
aF1.0
aF1.0
aF1.0
aF1.0
aF1.0
aF1.0
aF1.0
aF1.0
aF1.0
aF1.0
aF1.0
aF1.0
aF1.0
aF1.0
aF1.0
aF1.0
aF1.0
aF1.0
aF1.0
aF1.0
aF1.0
aF1.0
aF1.0
aF1.0
aF1.0
aF1.0
aF1.0
aF1.0
aF1.0
aF1.0
aF1.0
aF1.0
aF1.0
aF1.0
aF1.0
aF1.0
aF1.0
aF1.0
aF1.0
aF1.0
aF1.0
aF1.0
aF1.0
aF1.0
aF1.0
aF1.0
aF1.0
aF1.0
aF1.0
aF1.0
aF1.0
aF1.0
aF1.0
aF1.0
aF1.0
aF1.0
aF1.0
aF1.0
aF1.0
aF1.0
aF1.0
aF1.0
aF1.0
aF1.0
aF1.0
aF1.0
aF1.0
aF1.0
aF1.0
aF1.0
aF1.0
aF1.0
aF1.0
aF1.0
aF1.0
aF1.0
aF1.0
aF1.0
aF1.0
aF1.0
aF1.0
aF1.0
aF1.0
aF1.0
aF1.0
aF1.0
aF1.0
aF1.0
aF1.0
aF1.0
aF1.0
aF1.0
asg11
(lp36
I538
aI538
aI538
aI532
aI495
aI495
aI495
aI495
aI495
aI495
aI495
aI495
aI495
aI495
aI495
aI490
aI490
aI490
aI550
aI550
aI550
aI550
aI550
aI550
aI550
aI550
aI550
aI550
aI550
aI550
aI550
aI550
aI550
aI550
aI550
aI550
aI550
aI550
aI550
aI550
aI550
aI548
aI548
aI548
aI548
aI536
aI536
aI536
aI779
aI536
aI536
aI536
aI536
aI536
aI536
aI536
aI536
aI546
aI546
aI789
aI546
aI546
aI546
aI546
aI546
aI546
aI546
aI546
aI546
aI551
aI551
aI551
aI551
aI551
aI551
aI551
aI551
aI551
aI551
aI551
aI691
aI691
aI691
aI691
aI691
aI691
aI691
aI691
aI691
aI691
aI691
aI691
aI691
aI556
aI556
aI556
aI556
aI556
aI556
aI556
aI556
aI556
aI556
aI556
aI556
aI556
aI556
aI556
aI556
aI556
aI556
aI556
aI556
aI556
aI556
aI556
aI556
aI553
aI553
aI553
aI553
aI553
aI553
aI553
aI553
aI613
aI613
aI613
aI534
aI534
aI534
aI532
aI532
aI532
aI532
aI532
aI537
aI537
aI537
aI537
aI537
aI548
aI548
aI548
aI548
aI548
aI548
aI569
aI548
aI548
aI548
aI548
aI548
aI552
aI552
aI552
aI552
aI552
aI552
aI552
aI630
aI630
aI630
aI589
aI589
aI589
aI589
aI589
aI589
aI589
aI589
aI589
aI589
aI589
aI573
aI573
aI573
aI573
aI537
aI537
aI537
aI537
aI537
aI537
aI775
aI871
aI537
aI537
aI533
aI533
aI533
aI533
aI533
aI533
aI533
aI533
aI536
aI536
aI536
aI536
aI536
aI536
aI536
aI536
aI536
aI536
aI536
aI536
aI524
aI524
aI524
aI524
aI524
aI524
aI524
aI524
aI524
aI524
aI524
aI524
aI536
aI536
aI536
aI536
aI536
aI536
aI536
aI536
aI547
aI547
aI547
aI562
aI565
aI565
aI565
aI565
aI565
aI565
aI565
aI565
aI565
aI565
aI463
aI463
aI469
aI469
aI565
aI565
aI565
aI565
aI565
aI565
aI536
aI536
aI536
aI536
aI536
aI536
aI536
aI536
aI536
aI536
aI536
aI536
aI536
aI536
aI536
aI536
aI536
aI536
aI536
aI536
aI533
aI533
aI533
aI533
aI533
aI533
aI533
aI533
aI532
aI532
aI532
aI532
aI532
aI537
aI537
aI537
aI537
aI537
aI537
aI537
aI537
aI537
aI537
aI560
aI560
aI767
aI767
aI767
aI767
aI767
aI767
aI767
aI767
aI767
aI767
aI767
aI767
aI655
aI655
aI655
aI655
aI655
aI655
aI655
aI655
aI655
aI655
aI655
aI655
aI617
aI617
aI617
aI617
aI617
aI617
aI617
aI617
aI617
aI617
aI617
aI573
aI573
aI573
aI573
aI573
aI573
aI573
aI573
aI573
aI573
aI573
aI573
aI573
aI530
aI530
aI530
aI530
aI530
aI531
aI531
aI531
aI531
aI531
aI531
aI531
aI531
aI531
aI531
aI531
aI531
aI547
aI580
aI580
aI580
aI567
aI567
aI567
aI567
aI567
aI567
aI567
aI567
aI567
aI567
aI567
aI567
aI566
aI566
aI566
aI566
aI566
aI543
aI543
aI543
aI543
aI543
aI543
aI543
aI543
aI543
aI543
aI543
aI543
aI535
aI535
aI535
aI535
aI535
aI535
aI535
aI535
aI535
aI535
aI535
aI535
aI531
aI531
aI531
aI531
aI531
aI531
aI587
aI587
aI587
aI587
aI587
aI587
aI587
aI587
aI587
aI587
aI587
aI587
aI587
aI587
aI587
aI587
aI587
aI587
aI664
aI664
aI664
aI664
aI664
aI664
aI664
aI715
aI715
aI715
aI715
aI537
aI537
aI537
aI537
aI537
aI535
aI535
aI535
aI535
aI535
aI535
aI535
aI535
aI535
aI535
aI553
aI553
aI553
aI553
aI553
aI553
aI553
aI608
aI608
aI608
aI608
aI608
aI608
aI608
aI608
aI608
aI608
aI608
aI608
aI608
aI550
aI550
aI550
aI550
aI550
aI550
aI550
aI550
aI536
aI536
aI536
aI536
aI536
aI536
aI536
aI565
aI565
aI565
aI565
aI565
aI565
aI524
aI524
aI524
aI524
aI524
aI536
aI536
aI536
aI536
aI536
aI536
aI536
aI536
aI536
aI536
aI536
aI536
aI547
aI547
aI547
aI547
aI547
aI547
aI547
aI625
aI625
aI625
aI581
aI581
aI581
aI581
aI581
aI581
aI581
aI581
aI581
aI581
aI581
aI581
aI565
aI565
aI565
aI565
aI565
aI532
aI532
aI532
aI532
aI532
aI532
aI535
aI535
aI535
aI535
aI535
aI535
aI535
aI535
aI535
aI535
aI535
aI535
aI524
aI524
aI524
aI524
aI524
aI524
aI524
aI524
aI524
aI524
aI545
aI545
aI545
aI545
aI545
aI545
aI545
aI545
aI509
aI509
aI509
aI509
aI546
aI546
aI546
aI632
aI632
aI632
aI632
aI632
aI632
aI632
aI632
aI632
aI632
aI636
aI547
aI636
aI580
aI580
aI580
aI580
aI580
aI580
aI580
aI567
aI567
aI567
aI567
aI567
aI567
aI567
aI567
aI567
aI567
asg13
(lp37
I538
aI538
aI538
aI532
aI495
aI495
aI495
aI495
aI495
aI495
aI495
aI495
aI495
aI495
aI495
aI490
aI490
aI490
aI550
aI550
aI550
aI550
aI550
aI550
aI550
aI550
aI550
aI550
aI550
aI550
aI550
aI550
aI550
aI550
aI550
aI550
aI550
aI550
aI550
aI550
aI550
aI548
aI548
aI548
aI548
aI536
aI536
aI536
aI779
aI536
aI536
aI536
aI536
aI536
aI536
aI536
aI536
aI546
aI546
aI789
aI546
aI546
aI546
aI546
aI546
aI546
aI546
aI546
aI546
aI551
aI551
aI551
aI551
aI551
aI551
aI551
aI551
aI551
aI551
aI551
aI691
aI691
aI691
aI691
aI691
aI691
aI691
aI691
aI691
aI691
aI691
aI691
aI691
aI556
aI556
aI556
aI556
aI556
aI556
aI556
aI556
aI556
aI556
aI556
aI556
aI556
aI556
aI556
aI556
aI556
aI556
aI556
aI556
aI556
aI556
aI556
aI556
aI553
aI553
aI553
aI553
aI553
aI553
aI553
aI553
aI613
aI613
aI613
aI534
aI534
aI534
aI532
aI532
aI532
aI532
aI532
aI537
aI537
aI537
aI537
aI537
aI548
aI548
aI548
aI548
aI548
aI548
aI569
aI548
aI548
aI548
aI548
aI548
aI552
aI552
aI552
aI552
aI552
aI552
aI552
aI630
aI630
aI630
aI589
aI589
aI589
aI589
aI589
aI589
aI589
aI589
aI589
aI589
aI589
aI573
aI573
aI573
aI573
aI537
aI537
aI537
aI537
aI537
aI537
aI775
aI871
aI537
aI537
aI533
aI533
aI533
aI533
aI533
aI533
aI533
aI533
aI536
aI536
aI536
aI536
aI536
aI536
aI536
aI536
aI536
aI536
aI536
aI536
aI524
aI524
aI524
aI524
aI524
aI524
aI524
aI524
aI524
aI524
aI524
aI524
aI536
aI536
aI536
aI536
aI536
aI536
aI536
aI536
aI547
aI547
aI547
aI562
aI565
aI565
aI565
aI565
aI565
aI565
aI565
aI565
aI565
aI565
aI463
aI463
aI469
aI469
aI565
aI565
aI565
aI565
aI565
aI565
aI536
aI536
aI536
aI536
aI536
aI536
aI536
aI536
aI536
aI536
aI536
aI536
aI536
aI536
aI536
aI536
aI536
aI536
aI536
aI536
aI533
aI533
aI533
aI533
aI533
aI533
aI533
aI533
aI532
aI532
aI532
aI532
aI532
aI537
aI537
aI537
aI537
aI537
aI537
aI537
aI537
aI537
aI537
aI560
aI560
aI767
aI767
aI767
aI767
aI767
aI767
aI767
aI767
aI767
aI767
aI767
aI767
aI655
aI655
aI655
aI655
aI655
aI655
aI655
aI655
aI655
aI655
aI655
aI655
aI617
aI617
aI617
aI617
aI617
aI617
aI617
aI617
aI617
aI617
aI617
aI573
aI573
aI573
aI573
aI573
aI573
aI573
aI573
aI573
aI573
aI573
aI573
aI573
aI530
aI530
aI530
aI530
aI530
aI531
aI531
aI531
aI531
aI531
aI531
aI531
aI531
aI531
aI531
aI531
aI531
aI547
aI580
aI580
aI580
aI567
aI567
aI567
aI567
aI567
aI567
aI567
aI567
aI567
aI567
aI567
aI567
aI566
aI566
aI566
aI566
aI566
aI543
aI543
aI543
aI543
aI543
aI543
aI543
aI543
aI543
aI543
aI543
aI543
aI535
aI535
aI535
aI535
aI535
aI535
aI535
aI535
aI535
aI535
aI535
aI535
aI531
aI531
aI531
aI531
aI531
aI531
aI587
aI587
aI587
aI587
aI587
aI587
aI587
aI587
aI587
aI587
aI587
aI587
aI587
aI587
aI587
aI587
aI587
aI587
aI664
aI664
aI664
aI664
aI664
aI664
aI664
aI715
aI715
aI715
aI715
aI537
aI537
aI537
aI537
aI537
aI535
aI535
aI535
aI535
aI535
aI535
aI535
aI535
aI535
aI535
aI553
aI553
aI553
aI553
aI553
aI553
aI553
aI608
aI608
aI608
aI608
aI608
aI608
aI608
aI608
aI608
aI608
aI608
aI608
aI608
aI550
aI550
aI550
aI550
aI550
aI550
aI550
aI550
aI536
aI536
aI536
aI536
aI536
aI536
aI536
aI565
aI565
aI565
aI565
aI565
aI565
aI524
aI524
aI524
aI524
aI524
aI536
aI536
aI536
aI536
aI536
aI536
aI536
aI536
aI536
aI536
aI536
aI536
aI547
aI547
aI547
aI547
aI547
aI547
aI547
aI625
aI625
aI625
aI581
aI581
aI581
aI581
aI581
aI581
aI581
aI581
aI581
aI581
aI581
aI581
aI565
aI565
aI565
aI565
aI565
aI532
aI532
aI532
aI532
aI532
aI532
aI535
aI535
aI535
aI535
aI535
aI535
aI535
aI535
aI535
aI535
aI535
aI535
aI524
aI524
aI524
aI524
aI524
aI524
aI524
aI524
aI524
aI524
aI545
aI545
aI545
aI545
aI545
aI545
aI545
aI545
aI509
aI509
aI509
aI509
aI546
aI546
aI546
aI632
aI632
aI632
aI632
aI632
aI632
aI632
aI632
aI632
aI632
aI636
aI547
aI636
aI580
aI580
aI580
aI580
aI580
aI580
aI580
aI567
aI567
aI567
aI567
aI567
aI567
aI567
aI567
aI567
aI567
asg15
(lp38
I428
aI428
aI428
aI411
aI383
aI383
aI383
aI383
aI383
aI383
aI383
aI383
aI383
aI383
aI383
aI379
aI379
aI379
aI441
aI441
aI441
aI441
aI441
aI441
aI441
aI441
aI441
aI441
aI441
aI441
aI441
aI441
aI441
aI441
aI441
aI441
aI441
aI441
aI441
aI441
aI441
aI438
aI438
aI438
aI438
aI426
aI426
aI426
aI615
aI426
aI426
aI426
aI426
aI426
aI426
aI426
aI426
aI436
aI436
aI624
aI436
aI436
aI436
aI436
aI436
aI436
aI436
aI436
aI436
aI440
aI440
aI440
aI440
aI440
aI440
aI440
aI440
aI440
aI440
aI440
aI560
aI560
aI560
aI560
aI560
aI560
aI560
aI560
aI560
aI560
aI560
aI560
aI560
aI445
aI445
aI445
aI445
aI445
aI445
aI445
aI445
aI445
aI445
aI445
aI445
aI444
aI444
aI444
aI444
aI444
aI444
aI444
aI444
aI444
aI444
aI444
aI444
aI442
aI442
aI442
aI442
aI442
aI442
aI442
aI442
aI488
aI488
aI488
aI427
aI427
aI427
aI425
aI425
aI425
aI425
aI425
aI427
aI427
aI427
aI427
aI427
aI437
aI437
aI437
aI437
aI437
aI437
aI453
aI437
aI437
aI437
aI437
aI437
aI441
aI441
aI441
aI441
aI441
aI441
aI441
aI499
aI499
aI499
aI470
aI470
aI470
aI470
aI470
aI470
aI470
aI470
aI470
aI470
aI470
aI456
aI456
aI456
aI456
aI429
aI429
aI429
aI429
aI429
aI429
aI614
aI688
aI429
aI429
aI427
aI427
aI427
aI427
aI427
aI427
aI427
aI427
aI428
aI428
aI428
aI428
aI428
aI428
aI428
aI428
aI428
aI428
aI428
aI428
aI417
aI417
aI417
aI417
aI417
aI417
aI417
aI417
aI417
aI417
aI417
aI417
aI426
aI426
aI426
aI426
aI426
aI426
aI426
aI426
aI437
aI437
aI437
aI448
aI450
aI450
aI450
aI450
aI450
aI450
aI450
aI450
aI450
aI450
aI359
aI359
aI364
aI364
aI451
aI451
aI451
aI451
aI451
aI451
aI429
aI429
aI429
aI429
aI429
aI429
aI429
aI429
aI429
aI429
aI429
aI429
aI429
aI429
aI429
aI429
aI429
aI429
aI429
aI429
aI424
aI424
aI424
aI424
aI424
aI424
aI424
aI424
aI426
aI426
aI426
aI426
aI426
aI427
aI427
aI427
aI427
aI427
aI427
aI427
aI427
aI427
aI427
aI447
aI447
aI617
aI617
aI617
aI617
aI617
aI617
aI617
aI617
aI617
aI617
aI617
aI617
aI515
aI515
aI515
aI515
aI515
aI515
aI515
aI515
aI515
aI515
aI515
aI515
aI491
aI491
aI491
aI491
aI491
aI491
aI491
aI491
aI491
aI491
aI491
aI458
aI458
aI458
aI458
aI458
aI458
aI458
aI458
aI458
aI458
aI458
aI458
aI458
aI424
aI424
aI424
aI424
aI424
aI425
aI425
aI425
aI425
aI425
aI425
aI425
aI425
aI425
aI425
aI425
aI425
aI437
aI461
aI461
aI461
aI452
aI452
aI452
aI452
aI452
aI452
aI452
aI452
aI452
aI452
aI452
aI452
aI453
aI453
aI453
aI453
aI453
aI434
aI434
aI434
aI434
aI434
aI434
aI434
aI434
aI434
aI434
aI434
aI434
aI428
aI428
aI428
aI428
aI428
aI428
aI428
aI428
aI428
aI428
aI428
aI428
aI425
aI425
aI425
aI425
aI425
aI425
aI464
aI464
aI464
aI464
aI464
aI464
aI467
aI467
aI467
aI467
aI467
aI467
aI467
aI467
aI467
aI467
aI467
aI467
aI540
aI540
aI540
aI540
aI540
aI540
aI540
aI548
aI548
aI548
aI548
aI430
aI430
aI430
aI430
aI430
aI428
aI428
aI428
aI428
aI428
aI428
aI428
aI428
aI428
aI428
aI442
aI442
aI442
aI442
aI442
aI442
aI442
aI484
aI484
aI484
aI484
aI484
aI484
aI484
aI484
aI484
aI484
aI484
aI484
aI484
aI440
aI440
aI440
aI440
aI440
aI440
aI440
aI440
aI428
aI428
aI428
aI428
aI428
aI428
aI428
aI451
aI451
aI451
aI451
aI451
aI451
aI417
aI417
aI417
aI417
aI417
aI426
aI426
aI426
aI426
aI426
aI426
aI426
aI426
aI426
aI426
aI426
aI426
aI437
aI437
aI437
aI437
aI437
aI437
aI437
aI495
aI495
aI495
aI464
aI464
aI464
aI464
aI464
aI464
aI464
aI464
aI464
aI464
aI464
aI464
aI450
aI450
aI450
aI450
aI450
aI426
aI426
aI426
aI426
aI426
aI426
aI429
aI429
aI429
aI429
aI429
aI429
aI429
aI429
aI429
aI429
aI429
aI429
aI417
aI417
aI417
aI417
aI417
aI417
aI417
aI417
aI417
aI417
aI435
aI435
aI435
aI435
aI435
aI435
aI435
aI435
aI393
aI393
aI393
aI393
aI436
aI436
aI436
aI503
aI503
aI503
aI503
aI503
aI503
aI503
aI503
aI503
aI503
aI501
aI437
aI501
aI461
aI461
aI461
aI461
aI461
aI461
aI461
aI452
aI452
aI452
aI452
aI452
aI452
aI452
aI452
aI452
aI452
asg17
(lp39
I225
aI225
aI225
aI267
aI232
aI179
aI179
aI179
aI179
aI179
aI179
aI179
aI179
aI179
aI179
aI177
aI177
aI177
aI237
aI237
aI237
aI237
aI237
aI237
aI237
aI237
aI237
aI237
aI237
aI237
aI236
aI236
aI236
aI236
aI236
aI236
aI236
aI236
aI236
aI236
aI236
aI232
aI232
aI318
aI318
aI222
aI222
aI222
aI222
aI222
aI222
aI222
aI222
aI222
aI222
aI222
aI222
aI232
aI232
aI232
aI266
aI300
aI283
aI232
aI232
aI232
aI232
aI232
aI232
aI233
aI233
aI233
aI233
aI233
aI320
aI424
aI303
aI233
aI233
aI233
aI321
aI422
aI321
aI422
aI422
aI321
aI321
aI321
aI321
aI422
aI542
aI401
aI321
aI239
aI239
aI239
aI239
aI239
aI239
aI239
aI239
aI239
aI239
aI239
aI239
aI236
aI236
aI236
aI236
aI236
aI236
aI236
aI236
aI324
aI288
aI236
aI236
aI235
aI235
aI235
aI235
aI235
aI235
aI235
aI235
aI258
aI258
aI258
aI227
aI227
aI227
aI226
aI226
aI226
aI226
aI226
aI222
aI222
aI222
aI222
aI222
aI233
aI233
aI233
aI233
aI233
aI233
aI242
aI233
aI233
aI233
aI233
aI233
aI321
aI234
aI234
aI234
aI321
aI269
aI269
aI263
aI263
aI263
aI251
aI251
aI251
aI251
aI344
aI455
aI325
aI251
aI251
aI251
aI251
aI243
aI243
aI243
aI243
aI228
aI228
aI228
aI228
aI228
aI228
aI228
aI228
aI228
aI228
aI227
aI227
aI227
aI227
aI227
aI227
aI310
aI410
aI312
aI228
aI228
aI228
aI228
aI228
aI228
aI228
aI228
aI228
aI228
aI295
aI384
aI501
aI368
aI251
aI217
aI217
aI217
aI217
aI217
aI217
aI217
aI217
aI221
aI221
aI221
aI221
aI221
aI221
aI221
aI221
aI232
aI232
aI232
aI238
aI311
aI239
aI239
aI239
aI239
aI239
aI239
aI239
aI239
aI239
aI166
aI166
aI169
aI169
aI239
aI239
aI239
aI239
aI239
aI239
aI228
aI228
aI228
aI228
aI228
aI228
aI228
aI228
aI228
aI228
aI228
aI228
aI228
aI228
aI228
aI228
aI228
aI228
aI228
aI228
aI305
aI407
aI356
aI220
aI220
aI271
aI356
aI220
aI227
aI227
aI227
aI227
aI227
aI222
aI222
aI222
aI222
aI222
aI222
aI222
aI222
aI222
aI222
aI237
aI237
aI348
aI348
aI348
aI348
aI348
aI439
aI348
aI348
aI348
aI461
aI348
aI348
aI264
aI264
aI350
aI264
aI264
aI264
aI264
aI264
aI264
aI264
aI264
aI264
aI261
aI261
aI261
aI261
aI261
aI261
aI261
aI261
aI261
aI261
aI261
aI246
aI246
aI246
aI246
aI246
aI246
aI246
aI246
aI246
aI246
aI246
aI246
aI246
aI226
aI226
aI226
aI226
aI226
aI226
aI226
aI226
aI226
aI226
aI226
aI226
aI226
aI226
aI226
aI226
aI226
aI233
aI245
aI245
aI245
aI240
aI240
aI240
aI240
aI240
aI240
aI240
aI240
aI240
aI240
aI240
aI240
aI243
aI243
aI243
aI243
aI243
aI230
aI230
aI230
aI230
aI230
aI230
aI230
aI230
aI230
aI230
aI230
aI230
aI228
aI228
aI228
aI228
aI228
aI228
aI228
aI228
aI228
aI228
aI228
aI228
aI226
aI226
aI226
aI226
aI226
aI226
aI242
aI242
aI242
aI242
aI242
aI242
aI247
aI247
aI247
aI247
aI247
aI247
aI247
aI247
aI247
aI247
aI247
aI247
aI313
aI313
aI313
aI313
aI313
aI313
aI313
aI248
aI248
aI248
aI248
aI228
aI228
aI228
aI228
aI228
aI228
aI228
aI228
aI228
aI228
aI228
aI228
aI228
aI228
aI228
aI235
aI235
aI235
aI235
aI235
aI235
aI235
aI256
aI256
aI256
aI256
aI256
aI256
aI256
aI256
aI256
aI256
aI256
aI256
aI256
aI237
aI237
aI237
aI237
aI237
aI237
aI237
aI237
aI228
aI228
aI228
aI228
aI228
aI228
aI228
aI239
aI239
aI239
aI239
aI239
aI239
aI217
aI217
aI217
aI217
aI217
aI221
aI221
aI221
aI221
aI221
aI221
aI221
aI221
aI221
aI221
aI221
aI221
aI232
aI232
aI232
aI232
aI232
aI232
aI233
aI260
aI260
aI260
aI249
aI249
aI249
aI249
aI249
aI249
aI249
aI249
aI249
aI249
aI249
aI249
aI239
aI239
aI239
aI239
aI239
aI227
aI227
aI227
aI227
aI227
aI227
aI231
aI231
aI231
aI231
aI231
aI231
aI231
aI231
aI231
aI231
aI231
aI231
aI218
aI218
aI218
aI218
aI218
aI218
aI218
aI218
aI218
aI218
aI231
aI231
aI231
aI231
aI231
aI231
aI231
aI231
aI181
aI181
aI181
aI181
aI232
aI232
aI232
aI271
aI271
aI271
aI271
aI271
aI271
aI271
aI271
aI271
aI271
aI257
aI233
aI257
aI245
aI245
aI245
aI245
aI245
aI245
aI245
aI240
aI240
aI240
aI240
aI240
aI240
aI240
aI240
aI240
aI240
asg19
(lp40
F1.0
aF1.0
aF1.0
aF1.0
aF1.0
aF1.0
aF1.0
aF1.0
aF1.0
aF1.0
aF1.0
aF1.0
aF1.0
aF1.0
aF1.0
aF1.0
aF1.0
aF1.0
aF1.0
aF1.0
aF1.0
aF1.0
aF1.0
aF1.0
aF1.0
aF1.0
aF1.0
aF1.0
aF1.0
aF1.0
aF1.0
aF1.0
aF1.0
aF1.0
aF1.0
aF1.0
aF1.0
aF1.0
aF1.0
aF1.0
aF1.0
aF1.0
aF1.0
aF1.0
aF1.0
aF1.0
aF1.0
aF1.0
aF1.5
aF1.0
aF1.0
aF1.0
aF1.0
aF1.0
aF1.0
aF1.0
aF1.0
aF1.0
aF1.0
aF1.5
aF1.0
aF1.0
aF1.0
aF1.0
aF1.0
aF1.0
aF1.0
aF1.0
aF1.0
aF1.0
aF1.0
aF1.0
aF1.0
aF1.0
aF1.0
aF1.0
aF1.0
aF1.0
aF1.0
aF1.0
aF1.0
aF1.0
aF1.0
aF1.0
aF1.0
aF1.0
aF1.0
aF1.0
aF1.0
aF1.0
aF1.0
aF1.0
aF1.0
aF1.0
aF1.0
aF1.0
aF1.0
aF1.0
aF1.0
aF1.0
aF1.0
aF1.0
aF1.0
aF1.0
aF1.0
aF1.0
aF1.0
aF1.0
aF1.0
aF1.0
aF1.0
aF1.0
aF1.0
aF1.0
aF1.0
aF1.0
aF1.0
aF1.0
aF1.0
aF1.0
aF1.0
aF1.0
aF1.0
aF1.0
aF1.0
aF1.0
aF1.0
aF1.0
aF1.0
aF1.0
aF1.0
aF1.0
aF1.0
aF1.0
aF1.0
aF1.0
aF1.0
aF1.0
aF1.0
aF1.0
aF1.0
aF1.0
aF1.0
aF1.0
aF1.0
aF1.0
aF1.0
aF1.0
aF1.0
aF1.0
aF1.0
aF1.0
aF1.0
aF1.0
aF1.0
aF1.0
aF1.0
aF1.0
aF1.0
aF1.0
aF1.0
aF1.0
aF1.0
aF1.0
aF1.0
aF1.0
aF1.0
aF1.0
aF1.0
aF1.0
aF1.0
aF1.0
aF1.0
aF1.0
aF1.0
aF1.0
aF1.0
aF1.0
aF1.0
aF1.0
aF1.0
aF1.0
aF1.0
aF1.0
aF1.5
aF1.7
aF1.0
aF1.0
aF1.0
aF1.0
aF1.0
aF1.0
aF1.0
aF1.0
aF1.0
aF1.0
aF1.0
aF1.0
aF1.0
aF1.0
aF1.0
aF1.0
aF1.0
aF1.0
aF1.0
aF1.0
aF1.0
aF1.0
aF1.0
aF1.0
aF1.0
aF1.0
aF1.0
aF1.0
aF1.0
aF1.0
aF1.0
aF1.0
aF1.0
aF1.0
aF1.0
aF1.0
aF1.0
aF1.0
aF1.0
aF1.0
aF1.0
aF1.0
aF1.0
aF1.0
aF1.0
aF1.0
aF1.0
aF1.0
aF1.0
aF1.0
aF1.0
aF1.0
aF1.0
aF1.0
aF1.0
aF1.0
aF1.0
aF1.0
aF1.0
aF1.0
aF1.0
aF1.0
aF1.0
aF1.0
aF1.0
aF1.0
aF1.0
aF1.0
aF1.0
aF1.0
aF1.0
aF1.0
aF1.0
aF1.0
aF1.0
aF1.0
aF1.0
aF1.0
aF1.0
aF1.0
aF1.0
aF1.0
aF1.0
aF1.0
aF1.0
aF1.0
aF1.0
aF1.0
aF1.0
aF1.0
aF1.0
aF1.0
aF1.0
aF1.0
aF1.0
aF1.0
aF1.0
aF1.0
aF1.0
aF1.0
aF1.0
aF1.0
aF1.0
aF1.0
aF1.0
aF1.0
aF1.0
aF1.0
aF1.0
aF1.0
aF1.0
aF1.0
aF1.0
aF1.0
aF1.0
aF1.0
aF1.0
aF1.0
aF1.0
aF1.0
aF1.0
aF1.0
aF1.0
aF1.0
aF1.0
aF1.0
aF1.0
aF1.0
aF1.0
aF1.0
aF1.0
aF1.0
aF1.0
aF1.0
aF1.0
aF1.0
aF1.0
aF1.0
aF1.0
aF1.0
aF1.0
aF1.0
aF1.0
aF1.0
aF1.0
aF1.0
aF1.0
aF1.0
aF1.0
aF1.0
aF1.0
aF1.0
aF1.0
aF1.0
aF1.0
aF1.0
aF1.0
aF1.0
aF1.0
aF1.0
aF1.0
aF1.0
aF1.0
aF1.0
aF1.0
aF1.0
aF1.0
aF1.0
aF1.0
aF1.0
aF1.0
aF1.0
aF1.0
aF1.0
aF1.0
aF1.0
aF1.0
aF1.0
aF1.0
aF1.0
aF1.0
aF1.0
aF1.0
aF1.0
aF1.0
aF1.0
aF1.0
aF1.0
aF1.0
aF1.0
aF1.0
aF1.0
aF1.0
aF1.0
aF1.0
aF1.0
aF1.0
aF1.0
aF1.0
aF1.0
aF1.0
aF1.0
aF1.0
aF1.0
aF1.0
aF1.0
aF1.0
aF1.0
aF1.0
aF1.0
aF1.0
aF1.0
aF1.0
aF1.0
aF1.0
aF1.0
aF1.0
aF1.0
aF1.0
aF1.0
aF1.0
aF1.0
aF1.0
aF1.0
aF1.0
aF1.0
aF1.0
aF1.0
aF1.0
aF1.0
aF1.0
aF1.0
aF1.0
aF1.0
aF1.0
aF1.0
aF1.0
aF1.0
aF1.0
aF1.0
aF1.0
aF1.0
aF1.0
aF1.0
aF1.0
aF1.0
aF1.0
aF1.0
aF1.0
aF1.0
aF1.0
aF1.0
aF1.0
aF1.0
aF1.0
aF1.0
aF1.0
aF1.0
aF1.0
aF1.0
aF1.0
aF1.0
aF1.0
aF1.0
aF1.0
aF1.0
aF1.0
aF1.0
aF1.0
aF1.0
aF1.0
aF1.0
aF1.0
aF1.0
aF1.0
aF1.0
aF1.0
aF1.0
aF1.0
aF1.0
aF1.0
aF1.0
aF1.0
aF1.0
aF1.0
aF1.0
aF1.0
aF1.0
aF1.0
aF1.0
aF1.0
aF1.0
aF1.0
aF1.0
aF1.0
aF1.0
aF1.0
aF1.0
aF1.0
aF1.0
aF1.0
aF1.0
aF1.0
aF1.0
aF1.0
aF1.0
aF1.0
aF1.0
aF1.0
aF1.0
aF1.0
aF1.0
aF1.0
aF1.0
aF1.0
aF1.0
aF1.0
aF1.0
aF1.0
aF1.0
aF1.0
aF1.0
aF1.0
aF1.0
aF1.0
aF1.0
aF1.0
aF1.0
aF1.0
aF1.0
aF1.0
aF1.0
aF1.0
aF1.0
aF1.0
aF1.0
aF1.0
aF1.0
aF1.0
aF1.0
aF1.0
aF1.0
aF1.0
aF1.0
aF1.0
aF1.0
aF1.0
aF1.0
aF1.0
aF1.0
aF1.0
aF1.0
aF1.0
aF1.0
aF1.0
aF1.0
aF1.0
aF1.0
aF1.0
aF1.0
aF1.0
aF1.0
aF1.0
aF1.0
aF1.0
aF1.0
aF1.0
aF1.0
aF1.0
aF1.0
aF1.0
aF1.0
aF1.0
aF1.0
aF1.0
aF1.0
aF1.0
aF1.0
aF1.0
aF1.0
aF1.0
aF1.0
aF1.0
aF1.0
aF1.0
aF1.0
aF1.0
aF1.0
aF1.0
aF1.0
aF1.0
aF1.0
aF1.0
aF1.0
aF1.0
aF1.0
aF1.0
aF1.0
aF1.0
aF1.0
aF1.0
aF1.0
aF1.0
aF1.0
aF1.0
aF1.0
aF1.0
aF1.0
aF1.0
aF1.0
aF1.0
aF1.0
aF1.0
aF1.0
aF1.0
aF1.0
aF1.0
aF1.0
aF1.0
aF1.0
aF1.0
aF1.0
aF1.0
aF1.0
aF1.0
aF1.0
aF1.0
aF1.0
aF1.0
asg21
(lp41
I428
aI428
aI428
aI411
aI383
aI383
aI383
aI383
aI383
aI383
aI383
aI383
aI383
aI383
aI383
aI379
aI379
aI379
aI441
aI441
aI441
aI441
aI441
aI441
aI441
aI441
aI441
aI441
aI441
aI441
aI441
aI441
aI441
aI441
aI441
aI441
aI441
aI441
aI441
aI441
aI441
aI438
aI438
aI438
aI438
aI426
aI426
aI426
aI615
aI426
aI426
aI426
aI426
aI426
aI426
aI426
aI426
aI436
aI436
aI624
aI436
aI436
aI436
aI436
aI436
aI436
aI436
aI436
aI436
aI440
aI440
aI440
aI440
aI440
aI440
aI440
aI440
aI440
aI440
aI440
aI560
aI560
aI560
aI560
aI560
aI560
aI560
aI560
aI560
aI560
aI560
aI560
aI560
aI445
aI445
aI445
aI445
aI445
aI445
aI445
aI445
aI445
aI445
aI445
aI445
aI444
aI444
aI444
aI444
aI444
aI444
aI444
aI444
aI444
aI444
aI444
aI444
aI442
aI442
aI442
aI442
aI442
aI442
aI442
aI442
aI488
aI488
aI488
aI427
aI427
aI427
aI425
aI425
aI425
aI425
aI425
aI427
aI427
aI427
aI427
aI427
aI437
aI437
aI437
aI437
aI437
aI437
aI453
aI437
aI437
aI437
aI437
aI437
aI441
aI441
aI441
aI441
aI441
aI441
aI441
aI499
aI499
aI499
aI470
aI470
aI470
aI470
aI470
aI470
aI470
aI470
aI470
aI470
aI470
aI456
aI456
aI456
aI456
aI429
aI429
aI429
aI429
aI429
aI429
aI614
aI688
aI429
aI429
aI427
aI427
aI427
aI427
aI427
aI427
aI427
aI427
aI428
aI428
aI428
aI428
aI428
aI428
aI428
aI428
aI428
aI428
aI428
aI428
aI417
aI417
aI417
aI417
aI417
aI417
aI417
aI417
aI417
aI417
aI417
aI417
aI426
aI426
aI426
aI426
aI426
aI426
aI426
aI426
aI437
aI437
aI437
aI448
aI450
aI450
aI450
aI450
aI450
aI450
aI450
aI450
aI450
aI450
aI359
aI359
aI364
aI364
aI451
aI451
aI451
aI451
aI451
aI451
aI429
aI429
aI429
aI429
aI429
aI429
aI429
aI429
aI429
aI429
aI429
aI429
aI429
aI429
aI429
aI429
aI429
aI429
aI429
aI429
aI424
aI424
aI424
aI424
aI424
aI424
aI424
aI424
aI426
aI426
aI426
aI426
aI426
aI427
aI427
aI427
aI427
aI427
aI427
aI427
aI427
aI427
aI427
aI447
aI447
aI617
aI617
aI617
aI617
aI617
aI617
aI617
aI617
aI617
aI617
aI617
aI617
aI515
aI515
aI515
aI515
aI515
aI515
aI515
aI515
aI515
aI515
aI515
aI515
aI491
aI491
aI491
aI491
aI491
aI491
aI491
aI491
aI491
aI491
aI491
aI458
aI458
aI458
aI458
aI458
aI458
aI458
aI458
aI458
aI458
aI458
aI458
aI458
aI424
aI424
aI424
aI424
aI424
aI425
aI425
aI425
aI425
aI425
aI425
aI425
aI425
aI425
aI425
aI425
aI425
aI437
aI461
aI461
aI461
aI452
aI452
aI452
aI452
aI452
aI452
aI452
aI452
aI452
aI452
aI452
aI452
aI453
aI453
aI453
aI453
aI453
aI434
aI434
aI434
aI434
aI434
aI434
aI434
aI434
aI434
aI434
aI434
aI434
aI428
aI428
aI428
aI428
aI428
aI428
aI428
aI428
aI428
aI428
aI428
aI428
aI425
aI425
aI425
aI425
aI425
aI425
aI464
aI464
aI464
aI464
aI464
aI464
aI467
aI467
aI467
aI467
aI467
aI467
aI467
aI467
aI467
aI467
aI467
aI467
aI540
aI540
aI540
aI540
aI540
aI540
aI540
aI548
aI548
aI548
aI548
aI430
aI430
aI430
aI430
aI430
aI428
aI428
aI428
aI428
aI428
aI428
aI428
aI428
aI428
aI428
aI442
aI442
aI442
aI442
aI442
aI442
aI442
aI484
aI484
aI484
aI484
aI484
aI484
aI484
aI484
aI484
aI484
aI484
aI484
aI484
aI440
aI440
aI440
aI440
aI440
aI440
aI440
aI440
aI428
aI428
aI428
aI428
aI428
aI428
aI428
aI451
aI451
aI451
aI451
aI451
aI451
aI417
aI417
aI417
aI417
aI417
aI426
aI426
aI426
aI426
aI426
aI426
aI426
aI426
aI426
aI426
aI426
aI426
aI437
aI437
aI437
aI437
aI437
aI437
aI437
aI495
aI495
aI495
aI464
aI464
aI464
aI464
aI464
aI464
aI464
aI464
aI464
aI464
aI464
aI464
aI450
aI450
aI450
aI450
aI450
aI426
aI426
aI426
aI426
aI426
aI426
aI429
aI429
aI429
aI429
aI429
aI429
aI429
aI429
aI429
aI429
aI429
aI429
aI417
aI417
aI417
aI417
aI417
aI417
aI417
aI417
aI417
aI417
aI435
aI435
aI435
aI435
aI435
aI435
aI435
aI435
aI393
aI393
aI393
aI393
aI436
aI436
aI436
aI503
aI503
aI503
aI503
aI503
aI503
aI503
aI503
aI503
aI503
aI501
aI437
aI501
aI461
aI461
aI461
aI461
aI461
aI461
aI461
aI452
aI452
aI452
aI452
aI452
aI452
aI452
aI452
aI452
aI452
asg23
(lp42
F1.0
aF1.0
aF1.0
aF1.0
aF1.0
aF1.0
aF1.0
aF1.0
aF1.0
aF1.0
aF1.0
aF1.0
aF1.0
aF1.0
aF1.0
aF1.0
aF1.0
aF1.0
aF1.0
aF1.0
aF1.0
aF1.0
aF1.0
aF1.0
aF1.0
aF1.0
aF1.0
aF1.0
aF1.0
aF1.0
aF1.0
aF1.0
aF1.0
aF1.0
aF1.0
aF1.0
aF1.0
aF1.0
aF1.0
aF1.0
aF1.0
aF1.0
aF1.0
aF1.0
aF1.0
aF1.0
aF1.0
aF1.0
aF1.5
aF1.0
aF1.0
aF1.0
aF1.0
aF1.0
aF1.0
aF1.0
aF1.0
aF1.0
aF1.0
aF1.5
aF1.0
aF1.0
aF1.0
aF1.0
aF1.0
aF1.0
aF1.0
aF1.0
aF1.0
aF1.0
aF1.0
aF1.0
aF1.0
aF1.0
aF1.0
aF1.0
aF1.0
aF1.0
aF1.0
aF1.0
aF1.0
aF1.0
aF1.0
aF1.0
aF1.0
aF1.0
aF1.0
aF1.0
aF1.0
aF1.0
aF1.0
aF1.0
aF1.0
aF1.0
aF1.0
aF1.0
aF1.0
aF1.0
aF1.0
aF1.0
aF1.0
aF1.0
aF1.0
aF1.0
aF1.0
aF1.0
aF1.0
aF1.0
aF1.0
aF1.0
aF1.0
aF1.0
aF1.0
aF1.0
aF1.0
aF1.0
aF1.0
aF1.0
aF1.0
aF1.0
aF1.0
aF1.0
aF1.0
aF1.0
aF1.0
aF1.0
aF1.0
aF1.0
aF1.0
aF1.0
aF1.0
aF1.0
aF1.0
aF1.0
aF1.0
aF1.0
aF1.0
aF1.0
aF1.0
aF1.0
aF1.0
aF1.0
aF1.0
aF1.0
aF1.0
aF1.0
aF1.0
aF1.0
aF1.0
aF1.0
aF1.0
aF1.0
aF1.0
aF1.0
aF1.0
aF1.0
aF1.0
aF1.0
aF1.0
aF1.0
aF1.0
aF1.0
aF1.0
aF1.0
aF1.0
aF1.0
aF1.0
aF1.0
aF1.0
aF1.0
aF1.0
aF1.0
aF1.0
aF1.0
aF1.0
aF1.0
aF1.0
aF1.0
aF1.0
aF1.0
aF1.0
aF1.0
aF1.0
aF1.0
aF1.5
aF1.7
aF1.0
aF1.0
aF1.0
aF1.0
aF1.0
aF1.0
aF1.0
aF1.0
aF1.0
aF1.0
aF1.0
aF1.0
aF1.0
aF1.0
aF1.0
aF1.0
aF1.0
aF1.0
aF1.0
aF1.0
aF1.0
aF1.0
aF1.0
aF1.0
aF1.0
aF1.0
aF1.0
aF1.0
aF1.0
aF1.0
aF1.0
aF1.0
aF1.0
aF1.0
aF1.0
aF1.0
aF1.0
aF1.0
aF1.0
aF1.0
aF1.0
aF1.0
aF1.0
aF1.0
aF1.0
aF1.0
aF1.0
aF1.0
aF1.0
aF1.0
aF1.0
aF1.0
aF1.0
aF1.0
aF1.0
aF1.0
aF1.0
aF1.0
aF1.0
aF1.0
aF1.0
aF1.0
aF1.0
aF1.0
aF1.0
aF1.0
aF1.0
aF1.0
aF1.0
aF1.0
aF1.0
aF1.0
aF1.0
aF1.0
aF1.0
aF1.0
aF1.0
aF1.0
aF1.0
aF1.0
aF1.0
aF1.0
aF1.0
aF1.0
aF1.0
aF1.0
aF1.0
aF1.0
aF1.0
aF1.0
aF1.0
aF1.0
aF1.0
aF1.0
aF1.0
aF1.0
aF1.0
aF1.0
aF1.0
aF1.0
aF1.0
aF1.0
aF1.0
aF1.0
aF1.0
aF1.0
aF1.0
aF1.0
aF1.0
aF1.0
aF1.0
aF1.0
aF1.0
aF1.0
aF1.0
aF1.0
aF1.0
aF1.0
aF1.0
aF1.0
aF1.0
aF1.0
aF1.0
aF1.0
aF1.0
aF1.0
aF1.0
aF1.0
aF1.0
aF1.0
aF1.0
aF1.0
aF1.0
aF1.0
aF1.0
aF1.0
aF1.0
aF1.0
aF1.0
aF1.0
aF1.0
aF1.0
aF1.0
aF1.0
aF1.0
aF1.0
aF1.0
aF1.0
aF1.0
aF1.0
aF1.0
aF1.0
aF1.0
aF1.0
aF1.0
aF1.0
aF1.0
aF1.0
aF1.0
aF1.0
aF1.0
aF1.0
aF1.0
aF1.0
aF1.0
aF1.0
aF1.0
aF1.0
aF1.0
aF1.0
aF1.0
aF1.0
aF1.0
aF1.0
aF1.0
aF1.0
aF1.0
aF1.0
aF1.0
aF1.0
aF1.0
aF1.0
aF1.0
aF1.0
aF1.0
aF1.0
aF1.0
aF1.0
aF1.0
aF1.0
aF1.0
aF1.0
aF1.0
aF1.0
aF1.0
aF1.0
aF1.0
aF1.0
aF1.0
aF1.0
aF1.0
aF1.0
aF1.0
aF1.0
aF1.0
aF1.0
aF1.0
aF1.0
aF1.0
aF1.0
aF1.0
aF1.0
aF1.0
aF1.0
aF1.0
aF1.0
aF1.0
aF1.0
aF1.0
aF1.0
aF1.0
aF1.0
aF1.0
aF1.0
aF1.0
aF1.0
aF1.0
aF1.0
aF1.0
aF1.0
aF1.0
aF1.0
aF1.0
aF1.0
aF1.0
aF1.0
aF1.0
aF1.0
aF1.0
aF1.0
aF1.0
aF1.0
aF1.0
aF1.0
aF1.0
aF1.0
aF1.0
aF1.0
aF1.0
aF1.0
aF1.0
aF1.0
aF1.0
aF1.0
aF1.0
aF1.0
aF1.0
aF1.0
aF1.0
aF1.0
aF1.0
aF1.0
aF1.0
aF1.0
aF1.0
aF1.0
aF1.0
aF1.0
aF1.0
aF1.0
aF1.0
aF1.0
aF1.0
aF1.0
aF1.0
aF1.0
aF1.0
aF1.0
aF1.0
aF1.0
aF1.0
aF1.0
aF1.0
aF1.0
aF1.0
aF1.0
aF1.0
aF1.0
aF1.0
aF1.0
aF1.0
aF1.0
aF1.0
aF1.0
aF1.0
aF1.0
aF1.0
aF1.0
aF1.0
aF1.0
aF1.0
aF1.0
aF1.0
aF1.0
aF1.0
aF1.0
aF1.0
aF1.0
aF1.0
aF1.0
aF1.0
aF1.0
aF1.0
aF1.0
aF1.0
aF1.0
aF1.0
aF1.0
aF1.0
aF1.0
aF1.0
aF1.0
aF1.0
aF1.0
aF1.0
aF1.0
aF1.0
aF1.0
aF1.0
aF1.0
aF1.0
aF1.0
aF1.0
aF1.0
aF1.0
aF1.0
aF1.0
aF1.0
aF1.0
aF1.0
aF1.0
aF1.0
aF1.0
aF1.0
aF1.0
aF1.0
aF1.0
aF1.0
aF1.0
aF1.0
aF1.0
aF1.0
aF1.0
aF1.0
aF1.0
aF1.0
aF1.0
aF1.0
aF1.0
aF1.0
aF1.0
aF1.0
aF1.0
aF1.0
aF1.0
aF1.0
aF1.0
aF1.0
aF1.0
aF1.0
aF1.0
aF1.0
aF1.0
aF1.0
aF1.0
aF1.0
aF1.0
aF1.0
aF1.0
aF1.0
aF1.0
aF1.0
aF1.0
aF1.0
aF1.0
aF1.0
aF1.0
aF1.0
aF1.0
aF1.0
aF1.0
aF1.0
aF1.0
aF1.0
aF1.0
aF1.0
aF1.0
aF1.0
aF1.0
aF1.0
aF1.0
aF1.0
aF1.0
aF1.0
aF1.0
aF1.0
aF1.0
aF1.0
aF1.0
aF1.0
aF1.0
aF1.0
aF1.0
aF1.0
aF1.0
aF1.0
aF1.0
aF1.0
aF1.0
aF1.0
aF1.0
aF1.0
aF1.0
aF1.0
aF1.0
aF1.0
aF1.0
aF1.0
aF1.0
asg25
(lp43
F1.0
aF1.0
aF1.0
aF1.4
aF1.3
aF1.0
aF1.0
aF1.0
aF1.0
aF1.0
aF1.0
aF1.0
aF1.0
aF1.0
aF1.0
aF1.0
aF1.0
aF1.0
aF1.0
aF1.0
aF1.0
aF1.0
aF1.0
aF1.0
aF1.0
aF1.0
aF1.0
aF1.0
aF1.0
aF1.0
aF1.0
aF1.0
aF1.0
aF1.0
aF1.0
aF1.0
aF1.0
aF1.0
aF1.0
aF1.0
aF1.0
aF1.0
aF1.0
aF1.5
aF1.5
aF1.0
aF1.0
aF1.0
aF1.0
aF1.0
aF1.0
aF1.0
aF1.0
aF1.0
aF1.0
aF1.0
aF1.0
aF1.0
aF1.0
aF1.0
aF1.2
aF1.4
aF1.3
aF1.0
aF1.0
aF1.0
aF1.0
aF1.0
aF1.0
aF1.0
aF1.0
aF1.0
aF1.0
aF1.0
aF1.5
aF2.1
aF1.4
aF1.0
aF1.0
aF1.0
aF1.0
aF1.5
aF1.0
aF1.5
aF1.5
aF1.0
aF1.0
aF1.0
aF1.0
aF1.5
aF2.1
aF1.4
aF1.0
aF1.0
aF1.0
aF1.0
aF1.0
aF1.0
aF1.0
aF1.0
aF1.0
aF1.0
aF1.0
aF1.0
aF1.0
aF1.0
aF1.0
aF1.0
aF1.0
aF1.0
aF1.0
aF1.0
aF1.0
aF1.5
aF1.3
aF1.0
aF1.0
aF1.0
aF1.0
aF1.0
aF1.0
aF1.0
aF1.0
aF1.0
aF1.0
aF1.0
aF1.0
aF1.0
aF1.0
aF1.0
aF1.0
aF1.0
aF1.0
aF1.0
aF1.0
aF1.0
aF1.0
aF1.0
aF1.0
aF1.0
aF1.0
aF1.0
aF1.0
aF1.0
aF1.0
aF1.0
aF1.0
aF1.0
aF1.0
aF1.0
aF1.0
aF1.0
aF1.0
aF1.5
aF1.0
aF1.0
aF1.0
aF1.5
aF1.2
aF1.2
aF1.0
aF1.0
aF1.0
aF1.0
aF1.0
aF1.0
aF1.0
aF1.5
aF2.1
aF1.4
aF1.0
aF1.0
aF1.0
aF1.0
aF1.0
aF1.0
aF1.0
aF1.0
aF1.0
aF1.0
aF1.0
aF1.0
aF1.0
aF1.0
aF1.0
aF1.0
aF1.0
aF1.0
aF1.0
aF1.0
aF1.0
aF1.0
aF1.0
aF1.0
aF1.5
aF2.1
aF1.5
aF1.0
aF1.0
aF1.0
aF1.0
aF1.0
aF1.0
aF1.0
aF1.0
aF1.0
aF1.0
aF1.4
aI2
aF2.7
aF1.9
aF1.2
aF1.0
aF1.0
aF1.0
aF1.0
aF1.0
aF1.0
aF1.0
aF1.0
aF1.0
aF1.0
aF1.0
aF1.0
aF1.0
aF1.0
aF1.0
aF1.0
aF1.0
aF1.0
aF1.0
aF1.0
aF1.4
aF1.0
aF1.0
aF1.0
aF1.0
aF1.0
aF1.0
aF1.0
aF1.0
aF1.0
aF1.0
aF1.0
aF1.0
aF1.0
aF1.0
aF1.0
aF1.0
aF1.0
aF1.0
aF1.0
aF1.0
aF1.0
aF1.0
aF1.0
aF1.0
aF1.0
aF1.0
aF1.0
aF1.0
aF1.0
aF1.0
aF1.0
aF1.0
aF1.0
aF1.0
aF1.0
aF1.0
aF1.0
aF1.0
aF1.0
aF1.5
aF2.1
aF1.8
aF1.0
aF1.0
aF1.3
aF1.8
aF1.0
aF1.0
aF1.0
aF1.0
aF1.0
aF1.0
aF1.0
aF1.0
aF1.0
aF1.0
aF1.0
aF1.0
aF1.0
aF1.0
aF1.0
aF1.0
aF1.0
aF1.0
aF1.0
aF1.0
aF1.0
aF1.0
aF1.0
aF1.4
aF1.0
aF1.0
aF1.0
aF1.5
aF1.0
aF1.0
aF1.0
aF1.0
aF1.4
aF1.0
aF1.0
aF1.0
aF1.0
aF1.0
aF1.0
aF1.0
aF1.0
aF1.0
aF1.0
aF1.0
aF1.0
aF1.0
aF1.0
aF1.0
aF1.0
aF1.0
aF1.0
aF1.0
aF1.0
aF1.0
aF1.0
aF1.0
aF1.0
aF1.0
aF1.0
aF1.0
aF1.0
aF1.0
aF1.0
aF1.0
aF1.0
aF1.0
aF1.0
aF1.0
aF1.0
aF1.0
aF1.0
aF1.0
aF1.0
aF1.0
aF1.0
aF1.0
aF1.0
aF1.0
aF1.0
aF1.0
aF1.0
aF1.0
aF1.0
aF1.0
aF1.0
aF1.0
aF1.0
aF1.0
aF1.0
aF1.0
aF1.0
aF1.0
aF1.0
aF1.0
aF1.0
aF1.0
aF1.0
aF1.0
aF1.0
aF1.0
aF1.0
aF1.0
aF1.0
aF1.0
aF1.0
aF1.0
aF1.0
aF1.0
aF1.0
aF1.0
aF1.0
aF1.0
aF1.0
aF1.0
aF1.0
aF1.0
aF1.0
aF1.0
aF1.0
aF1.0
aF1.0
aF1.0
aF1.0
aF1.0
aF1.0
aF1.0
aF1.0
aF1.0
aF1.0
aF1.0
aF1.0
aF1.0
aF1.0
aF1.0
aF1.0
aF1.0
aF1.0
aF1.0
aF1.0
aF1.0
aF1.0
aF1.0
aF1.0
aF1.0
aF1.0
aF1.0
aF1.0
aF1.0
aF1.0
aF1.0
aF1.0
aF1.0
aF1.0
aF1.0
aF1.0
aF1.0
aF1.0
aF1.0
aF1.0
aF1.0
aF1.0
aF1.0
aF1.0
aF1.0
aF1.0
aF1.0
aF1.0
aF1.0
aF1.0
aF1.0
aF1.0
aF1.0
aF1.0
aF1.0
aF1.0
aF1.0
aF1.0
aF1.0
aF1.0
aF1.0
aF1.0
aF1.0
aF1.0
aF1.0
aF1.0
aF1.0
aF1.0
aF1.0
aF1.0
aF1.0
aF1.0
aF1.0
aF1.0
aF1.0
aF1.0
aF1.0
aF1.0
aF1.0
aF1.0
aF1.0
aF1.0
aF1.0
aF1.0
aF1.0
aF1.0
aF1.0
aF1.0
aF1.0
aF1.0
aF1.0
aF1.0
aF1.0
aF1.0
aF1.0
aF1.0
aF1.0
aF1.0
aF1.0
aF1.0
aF1.0
aF1.0
aF1.0
aF1.0
aF1.0
aF1.0
aF1.0
aF1.0
aF1.0
aF1.0
aF1.0
aF1.0
aF1.0
aF1.0
aF1.0
aF1.0
aF1.0
aF1.0
aF1.0
aF1.0
aF1.0
aF1.0
aF1.0
aF1.0
aF1.0
aF1.0
aF1.0
aF1.0
aF1.0
aF1.0
aF1.0
aF1.0
aF1.0
aF1.0
aF1.0
aF1.0
aF1.0
aF1.0
aF1.0
aF1.0
aF1.0
aF1.0
aF1.0
aF1.0
aF1.0
aF1.0
aF1.0
aF1.0
aF1.0
aF1.0
aF1.0
aF1.0
aF1.0
aF1.0
aF1.0
aF1.0
aF1.0
aF1.0
aF1.0
aF1.0
aF1.0
aF1.0
aF1.0
aF1.0
aF1.0
aF1.0
aF1.0
aF1.0
aF1.0
aF1.0
aF1.0
aF1.0
aF1.0
aF1.0
aF1.0
aF1.0
aF1.0
aF1.0
aF1.0
aF1.0
aF1.0
aF1.0
aF1.0
aF1.0
aF1.0
aF1.0
aF1.0
aF1.0
aF1.0
aF1.0
aF1.0
aF1.0
aF1.0
aF1.0
aF1.0
aF1.0
aF1.0
aF1.0
aF1.0
aF1.0
aF1.0
aF1.0
aF1.0
aF1.0
aF1.0
aF1.0
aF1.0
aF1.0
aF1.0
aF1.0
aF1.0
aF1.0
aF1.0
aF1.0
aF1.0
aF1.0
aF1.0
asg27
(lp44
I428
aI428
aI428
aI411
aI383
aI383
aI383
aI383
aI383
aI383
aI383
aI383
aI383
aI383
aI383
aI379
aI379
aI379
aI441
aI441
aI441
aI441
aI441
aI441
aI441
aI441
aI441
aI441
aI441
aI441
aI441
aI441
aI441
aI441
aI441
aI441
aI441
aI441
aI441
aI441
aI441
aI438
aI438
aI438
aI438
aI426
aI426
aI426
aI615
aI426
aI426
aI426
aI426
aI426
aI426
aI426
aI426
aI436
aI436
aI624
aI436
aI436
aI436
aI436
aI436
aI436
aI436
aI436
aI436
aI440
aI440
aI440
aI440
aI440
aI440
aI440
aI440
aI440
aI440
aI440
aI560
aI560
aI560
aI560
aI560
aI560
aI560
aI560
aI560
aI560
aI560
aI560
aI560
aI445
aI445
aI445
aI445
aI445
aI445
aI445
aI445
aI445
aI445
aI445
aI445
aI444
aI444
aI444
aI444
aI444
aI444
aI444
aI444
aI444
aI444
aI444
aI444
aI442
aI442
aI442
aI442
aI442
aI442
aI442
aI442
aI488
aI488
aI488
aI427
aI427
aI427
aI425
aI425
aI425
aI425
aI425
aI427
aI427
aI427
aI427
aI427
aI437
aI437
aI437
aI437
aI437
aI437
aI453
aI437
aI437
aI437
aI437
aI437
aI441
aI441
aI441
aI441
aI441
aI441
aI441
aI499
aI499
aI499
aI470
aI470
aI470
aI470
aI470
aI470
aI470
aI470
aI470
aI470
aI470
aI456
aI456
aI456
aI456
aI429
aI429
aI429
aI429
aI429
aI429
aI614
aI688
aI429
aI429
aI427
aI427
aI427
aI427
aI427
aI427
aI427
aI427
aI428
aI428
aI428
aI428
aI428
aI428
aI428
aI428
aI428
aI428
aI428
aI428
aI417
aI417
aI417
aI417
aI417
aI417
aI417
aI417
aI417
aI417
aI417
aI417
aI426
aI426
aI426
aI426
aI426
aI426
aI426
aI426
aI437
aI437
aI437
aI448
aI450
aI450
aI450
aI450
aI450
aI450
aI450
aI450
aI450
aI450
aI359
aI359
aI364
aI364
aI451
aI451
aI451
aI451
aI451
aI451
aI429
aI429
aI429
aI429
aI429
aI429
aI429
aI429
aI429
aI429
aI429
aI429
aI429
aI429
aI429
aI429
aI429
aI429
aI429
aI429
aI424
aI424
aI424
aI424
aI424
aI424
aI424
aI424
aI426
aI426
aI426
aI426
aI426
aI427
aI427
aI427
aI427
aI427
aI427
aI427
aI427
aI427
aI427
aI447
aI447
aI617
aI617
aI617
aI617
aI617
aI617
aI617
aI617
aI617
aI617
aI617
aI617
aI515
aI515
aI515
aI515
aI515
aI515
aI515
aI515
aI515
aI515
aI515
aI515
aI491
aI491
aI491
aI491
aI491
aI491
aI491
aI491
aI491
aI491
aI491
aI458
aI458
aI458
aI458
aI458
aI458
aI458
aI458
aI458
aI458
aI458
aI458
aI458
aI424
aI424
aI424
aI424
aI424
aI425
aI425
aI425
aI425
aI425
aI425
aI425
aI425
aI425
aI425
aI425
aI425
aI437
aI461
aI461
aI461
aI452
aI452
aI452
aI452
aI452
aI452
aI452
aI452
aI452
aI452
aI452
aI452
aI453
aI453
aI453
aI453
aI453
aI434
aI434
aI434
aI434
aI434
aI434
aI434
aI434
aI434
aI434
aI434
aI434
aI428
aI428
aI428
aI428
aI428
aI428
aI428
aI428
aI428
aI428
aI428
aI428
aI425
aI425
aI425
aI425
aI425
aI425
aI464
aI464
aI464
aI464
aI464
aI464
aI467
aI467
aI467
aI467
aI467
aI467
aI467
aI467
aI467
aI467
aI467
aI467
aI540
aI540
aI540
aI540
aI540
aI540
aI540
aI548
aI548
aI548
aI548
aI430
aI430
aI430
aI430
aI430
aI428
aI428
aI428
aI428
aI428
aI428
aI428
aI428
aI428
aI428
aI442
aI442
aI442
aI442
aI442
aI442
aI442
aI484
aI484
aI484
aI484
aI484
aI484
aI484
aI484
aI484
aI484
aI484
aI484
aI484
aI440
aI440
aI440
aI440
aI440
aI440
aI440
aI440
aI428
aI428
aI428
aI428
aI428
aI428
aI428
aI451
aI451
aI451
aI451
aI451
aI451
aI417
aI417
aI417
aI417
aI417
aI426
aI426
aI426
aI426
aI426
aI426
aI426
aI426
aI426
aI426
aI426
aI426
aI437
aI437
aI437
aI437
aI437
aI437
aI437
aI495
aI495
aI495
aI464
aI464
aI464
aI464
aI464
aI464
aI464
aI464
aI464
aI464
aI464
aI464
aI450
aI450
aI450
aI450
aI450
aI426
aI426
aI426
aI426
aI426
aI426
aI429
aI429
aI429
aI429
aI429
aI429
aI429
aI429
aI429
aI429
aI429
aI429
aI417
aI417
aI417
aI417
aI417
aI417
aI417
aI417
aI417
aI417
aI435
aI435
aI435
aI435
aI435
aI435
aI435
aI435
aI393
aI393
aI393
aI393
aI436
aI436
aI436
aI503
aI503
aI503
aI503
aI503
aI503
aI503
aI503
aI503
aI503
aI501
aI437
aI501
aI461
aI461
aI461
aI461
aI461
aI461
aI461
aI452
aI452
aI452
aI452
aI452
aI452
aI452
aI452
aI452
aI452
asg29
(lp45
I186
aI186
aI186
aI208
aI181
aI139
aI139
aI139
aI139
aI139
aI139
aI139
aI139
aI139
aI139
aI138
aI138
aI138
aI199
aI199
aI199
aI199
aI199
aI199
aI199
aI199
aI199
aI199
aI199
aI199
aI199
aI199
aI199
aI199
aI199
aI199
aI199
aI199
aI199
aI199
aI199
aI195
aI195
aI262
aI262
aI184
aI184
aI184
aI184
aI184
aI184
aI184
aI184
aI184
aI184
aI184
aI184
aI194
aI194
aI194
aI221
aI248
aI235
aI194
aI194
aI194
aI194
aI194
aI194
aI195
aI195
aI195
aI195
aI195
aI263
aI345
aI250
aI195
aI195
aI195
aI276
aI355
aI276
aI355
aI355
aI276
aI276
aI276
aI276
aI355
aI449
aI339
aI276
aI201
aI201
aI201
aI201
aI201
aI201
aI201
aI201
aI201
aI201
aI201
aI201
aI197
aI197
aI197
aI197
aI197
aI197
aI197
aI197
aI266
aI239
aI197
aI197
aI196
aI196
aI196
aI196
aI196
aI196
aI196
aI196
aI215
aI215
aI215
aI191
aI191
aI191
aI190
aI190
aI190
aI190
aI190
aI184
aI184
aI184
aI184
aI184
aI195
aI195
aI195
aI195
aI195
aI195
aI202
aI195
aI195
aI195
aI195
aI195
aI264
aI196
aI196
aI196
aI264
aI223
aI223
aI218
aI218
aI218
aI210
aI210
aI210
aI210
aI282
aI370
aI268
aI210
aI210
aI210
aI210
aI202
aI202
aI202
aI202
aI191
aI191
aI191
aI191
aI191
aI191
aI191
aI191
aI191
aI191
aI191
aI191
aI191
aI191
aI191
aI191
aI256
aI335
aI257
aI191
aI191
aI191
aI191
aI191
aI191
aI191
aI191
aI191
aI191
aI244
aI312
aI404
aI299
aI207
aI181
aI181
aI181
aI181
aI181
aI181
aI181
aI181
aI184
aI184
aI184
aI184
aI184
aI184
aI184
aI184
aI195
aI195
aI195
aI199
aI256
aI200
aI200
aI200
aI200
aI200
aI200
aI200
aI200
aI200
aI130
aI130
aI132
aI132
aI200
aI200
aI200
aI200
aI200
aI200
aI192
aI192
aI192
aI192
aI192
aI192
aI192
aI192
aI191
aI191
aI191
aI191
aI191
aI191
aI191
aI191
aI191
aI191
aI191
aI191
aI250
aI330
aI290
aI183
aI183
aI223
aI290
aI183
aI190
aI190
aI190
aI190
aI190
aI184
aI184
aI184
aI184
aI184
aI184
aI184
aI184
aI184
aI184
aI198
aI198
aI296
aI296
aI296
aI296
aI296
aI367
aI296
aI296
aI296
aI385
aI296
aI296
aI216
aI216
aI283
aI216
aI216
aI216
aI216
aI216
aI216
aI216
aI216
aI216
aI217
aI217
aI217
aI217
aI217
aI217
aI217
aI217
aI217
aI217
aI217
aI206
aI206
aI206
aI206
aI206
aI206
aI206
aI206
aI206
aI206
aI206
aI206
aI206
aI190
aI190
aI190
aI190
aI190
aI190
aI190
aI190
aI190
aI190
aI190
aI190
aI190
aI190
aI190
aI190
aI190
aI195
aI204
aI204
aI204
aI201
aI201
aI201
aI201
aI201
aI201
aI201
aI201
aI201
aI201
aI201
aI201
aI204
aI204
aI204
aI204
aI204
aI193
aI193
aI193
aI193
aI193
aI193
aI193
aI193
aI193
aI193
aI193
aI193
aI191
aI191
aI191
aI191
aI191
aI191
aI191
aI191
aI191
aI191
aI191
aI191
aI190
aI190
aI190
aI190
aI190
aI190
aI199
aI199
aI199
aI199
aI199
aI199
aI206
aI206
aI206
aI206
aI206
aI206
aI206
aI206
aI206
aI206
aI206
aI206
aI270
aI270
aI270
aI270
aI270
aI270
aI270
aI191
aI191
aI191
aI191
aI192
aI192
aI192
aI192
aI192
aI191
aI191
aI191
aI191
aI191
aI191
aI191
aI191
aI191
aI191
aI196
aI196
aI196
aI196
aI196
aI196
aI196
aI214
aI214
aI214
aI214
aI214
aI214
aI214
aI214
aI214
aI214
aI214
aI214
aI214
aI199
aI199
aI199
aI199
aI199
aI199
aI199
aI199
aI191
aI191
aI191
aI191
aI191
aI191
aI191
aI199
aI199
aI199
aI199
aI199
aI199
aI181
aI181
aI181
aI181
aI181
aI184
aI184
aI184
aI184
aI184
aI184
aI184
aI184
aI184
aI184
aI184
aI184
aI195
aI195
aI195
aI195
aI195
aI195
aI195
aI215
aI215
aI215
aI208
aI208
aI208
aI208
aI208
aI208
aI208
aI208
aI208
aI208
aI208
aI208
aI200
aI200
aI200
aI200
aI200
aI190
aI190
aI190
aI190
aI190
aI190
aI195
aI195
aI195
aI195
aI195
aI195
aI195
aI195
aI195
aI195
aI195
aI195
aI181
aI181
aI181
aI181
aI181
aI181
aI181
aI181
aI181
aI181
aI194
aI194
aI194
aI194
aI194
aI194
aI194
aI194
aI141
aI141
aI141
aI141
aI194
aI194
aI194
aI226
aI226
aI226
aI226
aI226
aI226
aI226
aI226
aI226
aI226
aI211
aI195
aI211
aI204
aI204
aI204
aI204
aI204
aI204
aI204
aI201
aI201
aI201
aI201
aI201
aI201
aI201
aI201
aI201
aI201
asbag1
(g2
g3
Ntp46
Rp47
(dp48
g7
(lp49
I668
aI668
aI668
aI719
aI771
aI771
aI771
aI771
aI771
aI771
aI771
aI771
aI771
aI771
aI643
aI768
aI768
aI643
aI662
aI662
aI662
aI662
aI662
aI662
aI662
aI662
aI662
aI662
aI662
aI662
aI647
aI647
aI647
aI647
aI647
aI647
aI647
aI647
aI647
aI647
aI647
aI654
aI654
aI654
aI654
aI636
aI636
aI636
aI916
aI636
aI636
aI636
aI636
aI636
aI636
aI636
aI636
aI641
aI641
aI923
aI641
aI641
aI641
aI641
aI641
aI641
aI641
aI641
aI641
aI653
aI653
aI653
aI653
aI653
aI653
aI653
aI653
aI653
aI653
aI653
aI665
aI665
aI665
aI665
aI665
aI665
aI665
aI665
aI665
aI665
aI665
aI665
aI665
aI650
aI650
aI650
aI650
aI650
aI650
aI650
aI650
aI650
aI650
aI650
aI650
aI657
aI657
aI657
aI657
aI657
aI657
aI657
aI657
aI657
aI657
aI657
aI660
aI660
aI660
aI660
aI660
aI660
aI660
aI660
aI660
aI720
aI720
aI720
aI636
aI636
aI636
aI634
aI634
aI634
aI634
aI634
aI636
aI636
aI636
aI636
aI636
aI643
aI643
aI643
aI643
aI643
aI643
aI643
aI643
aI643
aI643
aI643
aI643
aI656
aI656
aI656
aI656
aI656
aI656
aI656
aI708
aI708
aI708
aI681
aI681
aI681
aI681
aI681
aI681
aI681
aI681
aI681
aI681
aI681
aI677
aI677
aI677
aI677
aI641
aI641
aI641
aI641
aI641
aI641
aI924
aI1037
aI641
aI641
aI634
aI634
aI634
aI634
aI634
aI634
aI634
aI634
aI636
aI636
aI636
aI636
aI636
aI636
aI636
aI636
aI636
aI636
aI636
aI636
aI638
aI638
aI638
aI638
aI638
aI638
aI638
aI638
aI638
aI638
aI638
aI638
aI630
aI630
aI630
aI630
aI630
aI630
aI630
aI630
aI643
aI643
aI643
aI662
aI681
aI681
aI681
aI681
aI681
aI681
aI681
aI681
aI681
aI681
aI685
aI685
aI702
aI702
aI659
aI659
aI659
aI659
aI659
aI659
aI641
aI641
aI641
aI641
aI641
aI641
aI641
aI641
aI635
aI635
aI635
aI635
aI635
aI635
aI635
aI635
aI635
aI635
aI635
aI635
aI638
aI638
aI638
aI638
aI638
aI638
aI638
aI638
aI635
aI635
aI635
aI635
aI635
aI632
aI632
aI632
aI632
aI632
aI632
aI632
aI632
aI632
aI632
aI661
aI661
aI725
aI725
aI725
aI725
aI712
aI725
aI725
aI725
aI725
aI725
aI725
aI725
aI746
aI746
aI746
aI746
aI746
aI746
aI746
aI746
aI746
aI746
aI746
aI746
aI602
aI602
aI602
aI602
aI602
aI602
aI602
aI602
aI602
aI602
aI602
aI701
aI701
aI701
aI701
aI701
aI701
aI701
aI701
aI701
aI701
aI701
aI701
aI701
aI633
aI633
aI633
aI633
aI636
aI636
aI636
aI636
aI636
aI636
aI636
aI636
aI636
aI636
aI636
aI636
aI636
aI636
aI695
aI695
aI695
aI691
aI691
aI691
aI691
aI691
aI691
aI691
aI691
aI691
aI691
aI691
aI691
aI678
aI678
aI678
aI678
aI678
aI639
aI639
aI639
aI639
aI639
aI639
aI639
aI639
aI639
aI639
aI639
aI639
aI633
aI633
aI633
aI633
aI633
aI633
aI633
aI633
aI633
aI633
aI633
aI633
aI634
aI634
aI634
aI634
aI634
aI634
aI728
aI728
aI728
aI728
aI728
aI728
aI704
aI704
aI704
aI704
aI704
aI704
aI704
aI704
aI704
aI704
aI704
aI704
aI698
aI698
aI698
aI698
aI698
aI698
aI698
aI701
aI701
aI701
aI701
aI646
aI646
aI646
aI646
aI646
aI644
aI644
aI644
aI644
aI644
aI644
aI644
aI644
aI644
aI644
aI660
aI660
aI660
aI660
aI660
aI660
aI660
aI706
aI706
aI706
aI706
aI706
aI706
aI706
aI706
aI706
aI706
aI706
aI706
aI706
aI641
aI641
aI641
aI641
aI641
aI641
aI641
aI641
aI639
aI639
aI639
aI639
aI639
aI639
aI639
aI663
aI663
aI663
aI663
aI663
aI663
aI638
aI638
aI638
aI638
aI638
aI630
aI630
aI630
aI630
aI630
aI630
aI630
aI630
aI630
aI630
aI630
aI630
aI643
aI643
aI643
aI643
aI643
aI643
aI643
aI741
aI741
aI741
aI697
aI697
aI697
aI697
aI697
aI697
aI697
aI697
aI697
aI697
aI697
aI697
aI681
aI681
aI681
aI681
aI681
aI635
aI635
aI635
aI635
aI635
aI635
aI632
aI632
aI632
aI632
aI632
aI632
aI632
aI632
aI632
aI632
aI632
aI632
aI640
aI640
aI640
aI640
aI640
aI640
aI640
aI640
aI640
aI640
aI641
aI641
aI641
aI641
aI641
aI641
aI641
aI641
aI699
aI699
aI699
aI699
aI641
aI641
aI641
aI725
aI725
aI725
aI725
aI725
aI725
aI725
aI725
aI725
aI725
aI729
aI729
aI729
aI695
aI695
aI695
aI695
aI695
aI695
aI695
aI691
aI691
aI691
aI691
aI691
aI691
aI691
aI691
aI691
aI691
asg9
(lp50
F1.0
aF1.0
aF1.0
aF1.0
aF1.0
aF1.0
aF1.0
aF1.0
aF1.0
aF1.0
aF1.0
aF1.0
aF1.0
aF1.0
aF1.0
aF1.0
aF1.0
aF1.0
aF1.0
aF1.0
aF1.0
aF1.0
aF1.0
aF1.0
aF1.0
aF1.0
aF1.0
aF1.0
aF1.0
aF1.0
aF1.0
aF1.0
aF1.0
aF1.0
aF1.0
aF1.0
aF1.0
aF1.0
aF1.0
aF1.0
aF1.0
aF1.0
aF1.0
aF1.0
aF1.0
aF1.0
aF1.0
aF1.0
aF1.5
aF1.0
aF1.0
aF1.0
aF1.0
aF1.0
aF1.0
aF1.0
aF1.0
aF1.0
aF1.0
aF1.5
aF1.0
aF1.0
aF1.0
aF1.0
aF1.0
aF1.0
aF1.0
aF1.0
aF1.0
aF1.0
aF1.0
aF1.0
aF1.0
aF1.0
aF1.0
aF1.0
aF1.0
aF1.0
aF1.0
aF1.0
aF1.0
aF1.0
aF1.0
aF1.0
aF1.0
aF1.0
aF1.0
aF1.0
aF1.0
aF1.0
aF1.0
aF1.0
aF1.0
aF1.0
aF1.0
aF1.0
aF1.0
aF1.0
aF1.0
aF1.0
aF1.0
aF1.0
aF1.0
aF1.0
aF1.0
aF1.0
aF1.0
aF1.0
aF1.0
aF1.0
aF1.0
aF1.0
aF1.0
aF1.0
aF1.0
aF1.0
aF1.0
aF1.0
aF1.0
aF1.0
aF1.0
aF1.0
aF1.0
aF1.0
aF1.0
aF1.0
aF1.0
aF1.0
aF1.0
aF1.0
aF1.0
aF1.0
aF1.0
aF1.0
aF1.0
aF1.0
aF1.0
aF1.0
aF1.0
aF1.0
aF1.0
aF1.0
aF1.0
aF1.0
aF1.0
aF1.0
aF1.0
aF1.0
aF1.0
aF1.0
aF1.0
aF1.0
aF1.0
aF1.0
aF1.0
aF1.0
aF1.0
aF1.0
aF1.0
aF1.0
aF1.0
aF1.0
aF1.0
aF1.0
aF1.0
aF1.0
aF1.0
aF1.0
aF1.0
aF1.0
aF1.0
aF1.0
aF1.0
aF1.0
aF1.0
aF1.0
aF1.0
aF1.0
aF1.0
aF1.0
aF1.0
aF1.0
aF1.0
aF1.0
aF1.5
aF1.7
aF1.0
aF1.0
aF1.0
aF1.0
aF1.0
aF1.0
aF1.0
aF1.0
aF1.0
aF1.0
aF1.0
aF1.0
aF1.0
aF1.0
aF1.0
aF1.0
aF1.0
aF1.0
aF1.0
aF1.0
aF1.0
aF1.0
aF1.0
aF1.0
aF1.0
aF1.0
aF1.0
aF1.0
aF1.0
aF1.0
aF1.0
aF1.0
aF1.0
aF1.0
aF1.0
aF1.0
aF1.0
aF1.0
aF1.0
aF1.0
aF1.0
aF1.0
aF1.0
aF1.0
aF1.0
aF1.0
aF1.0
aF1.0
aF1.0
aF1.0
aF1.0
aF1.0
aF1.0
aF1.0
aF1.0
aF1.0
aF1.0
aF1.0
aF1.0
aF1.0
aF1.0
aF1.0
aF1.0
aF1.0
aF1.0
aF1.0
aF1.0
aF1.0
aF1.0
aF1.0
aF1.0
aF1.0
aF1.0
aF1.0
aF1.0
aF1.0
aF1.0
aF1.0
aF1.0
aF1.0
aF1.0
aF1.0
aF1.0
aF1.0
aF1.0
aF1.0
aF1.0
aF1.0
aF1.0
aF1.0
aF1.0
aF1.0
aF1.0
aF1.0
aF1.0
aF1.0
aF1.0
aF1.0
aF1.0
aF1.0
aF1.0
aF1.0
aF1.0
aF1.0
aF1.0
aF1.0
aF1.0
aF1.0
aF1.0
aF1.0
aF1.0
aF1.0
aF1.0
aF1.0
aF1.0
aF1.0
aF1.0
aF1.0
aF1.0
aF1.0
aF1.0
aF1.0
aF1.0
aF1.0
aF1.0
aF1.0
aF1.0
aF1.0
aF1.0
aF1.0
aF1.0
aF1.0
aF1.0
aF1.0
aF1.0
aF1.0
aF1.0
aF1.0
aF1.0
aF1.0
aF1.0
aF1.0
aF1.0
aF1.0
aF1.0
aF1.0
aF1.0
aF1.0
aF1.0
aF1.0
aF1.0
aF1.0
aF1.0
aF1.0
aF1.0
aF1.0
aF1.0
aF1.0
aF1.0
aF1.0
aF1.0
aF1.0
aF1.0
aF1.0
aF1.0
aF1.0
aF1.0
aF1.0
aF1.0
aF1.0
aF1.0
aF1.0
aF1.0
aF1.0
aF1.0
aF1.0
aF1.0
aF1.0
aF1.0
aF1.0
aF1.0
aF1.0
aF1.0
aF1.0
aF1.0
aF1.0
aF1.0
aF1.0
aF1.0
aF1.0
aF1.0
aF1.0
aF1.0
aF1.0
aF1.0
aF1.0
aF1.0
aF1.0
aF1.0
aF1.0
aF1.0
aF1.0
aF1.0
aF1.0
aF1.0
aF1.0
aF1.0
aF1.0
aF1.0
aF1.0
aF1.0
aF1.0
aF1.0
aF1.0
aF1.0
aF1.0
aF1.0
aF1.0
aF1.0
aF1.0
aF1.0
aF1.0
aF1.0
aF1.0
aF1.0
aF1.0
aF1.0
aF1.0
aF1.0
aF1.0
aF1.0
aF1.0
aF1.0
aF1.0
aF1.0
aF1.0
aF1.0
aF1.0
aF1.0
aF1.0
aF1.0
aF1.0
aF1.0
aF1.0
aF1.0
aF1.0
aF1.0
aF1.0
aF1.0
aF1.0
aF1.0
aF1.0
aF1.0
aF1.0
aF1.0
aF1.0
aF1.0
aF1.0
aF1.0
aF1.0
aF1.0
aF1.0
aF1.0
aF1.0
aF1.0
aF1.0
aF1.0
aF1.0
aF1.0
aF1.0
aF1.0
aF1.0
aF1.0
aF1.0
aF1.0
aF1.0
aF1.0
aF1.0
aF1.0
aF1.0
aF1.0
aF1.0
aF1.0
aF1.0
aF1.0
aF1.0
aF1.0
aF1.0
aF1.0
aF1.0
aF1.0
aF1.0
aF1.0
aF1.0
aF1.0
aF1.0
aF1.0
aF1.0
aF1.0
aF1.0
aF1.0
aF1.0
aF1.0
aF1.0
aF1.0
aF1.0
aF1.0
aF1.0
aF1.0
aF1.0
aF1.0
aF1.0
aF1.0
aF1.0
aF1.0
aF1.0
aF1.0
aF1.0
aF1.0
aF1.0
aF1.0
aF1.0
aF1.0
aF1.0
aF1.0
aF1.0
aF1.0
aF1.0
aF1.0
aF1.0
aF1.0
aF1.0
aF1.0
aF1.0
aF1.0
aF1.0
aF1.0
aF1.0
aF1.0
aF1.0
aF1.0
aF1.0
aF1.0
aF1.0
aF1.0
aF1.0
aF1.0
aF1.0
aF1.0
aF1.0
aF1.0
aF1.0
aF1.0
aF1.0
aF1.0
aF1.0
aF1.0
aF1.0
aF1.0
aF1.0
aF1.0
aF1.0
aF1.0
aF1.0
aF1.0
aF1.0
aF1.0
aF1.0
aF1.0
aF1.0
aF1.0
aF1.0
aF1.0
aF1.0
aF1.0
aF1.0
aF1.0
aF1.0
aF1.0
aF1.0
aF1.0
aF1.0
aF1.0
aF1.0
aF1.0
aF1.0
aF1.0
aF1.0
aF1.0
aF1.0
aF1.0
aF1.0
aF1.0
aF1.0
aF1.0
aF1.0
aF1.0
aF1.0
aF1.0
aF1.0
aF1.0
aF1.0
aF1.0
aF1.0
aF1.0
aF1.0
aF1.0
aF1.0
aF1.0
aF1.0
aF1.0
aF1.0
aF1.0
aF1.0
aF1.0
aF1.0
aF1.0
aF1.0
aF1.0
aF1.0
aF1.0
aF1.0
aF1.0
aF1.0
aF1.0
aF1.0
aF1.0
aF1.0
aF1.0
asg11
(lp51
I668
aI668
aI668
aI719
aI771
aI771
aI771
aI771
aI771
aI771
aI771
aI771
aI771
aI771
aI643
aI768
aI768
aI643
aI662
aI662
aI662
aI662
aI662
aI662
aI662
aI662
aI662
aI662
aI662
aI662
aI647
aI647
aI647
aI647
aI647
aI647
aI647
aI647
aI647
aI647
aI647
aI654
aI654
aI654
aI654
aI636
aI636
aI636
aI916
aI636
aI636
aI636
aI636
aI636
aI636
aI636
aI636
aI641
aI641
aI923
aI641
aI641
aI641
aI641
aI641
aI641
aI641
aI641
aI641
aI653
aI653
aI653
aI653
aI653
aI653
aI653
aI653
aI653
aI653
aI653
aI665
aI665
aI665
aI665
aI665
aI665
aI665
aI665
aI665
aI665
aI665
aI665
aI665
aI650
aI650
aI650
aI650
aI650
aI650
aI650
aI650
aI650
aI650
aI650
aI650
aI657
aI657
aI657
aI657
aI657
aI657
aI657
aI657
aI657
aI657
aI657
aI660
aI660
aI660
aI660
aI660
aI660
aI660
aI660
aI660
aI720
aI720
aI720
aI636
aI636
aI636
aI634
aI634
aI634
aI634
aI634
aI636
aI636
aI636
aI636
aI636
aI643
aI643
aI643
aI643
aI643
aI643
aI643
aI643
aI643
aI643
aI643
aI643
aI656
aI656
aI656
aI656
aI656
aI656
aI656
aI708
aI708
aI708
aI681
aI681
aI681
aI681
aI681
aI681
aI681
aI681
aI681
aI681
aI681
aI677
aI677
aI677
aI677
aI641
aI641
aI641
aI641
aI641
aI641
aI924
aI1037
aI641
aI641
aI634
aI634
aI634
aI634
aI634
aI634
aI634
aI634
aI636
aI636
aI636
aI636
aI636
aI636
aI636
aI636
aI636
aI636
aI636
aI636
aI638
aI638
aI638
aI638
aI638
aI638
aI638
aI638
aI638
aI638
aI638
aI638
aI630
aI630
aI630
aI630
aI630
aI630
aI630
aI630
aI643
aI643
aI643
aI662
aI681
aI681
aI681
aI681
aI681
aI681
aI681
aI681
aI681
aI681
aI685
aI685
aI702
aI702
aI659
aI659
aI659
aI659
aI659
aI659
aI641
aI641
aI641
aI641
aI641
aI641
aI641
aI641
aI635
aI635
aI635
aI635
aI635
aI635
aI635
aI635
aI635
aI635
aI635
aI635
aI638
aI638
aI638
aI638
aI638
aI638
aI638
aI638
aI635
aI635
aI635
aI635
aI635
aI632
aI632
aI632
aI632
aI632
aI632
aI632
aI632
aI632
aI632
aI661
aI661
aI725
aI725
aI725
aI725
aI712
aI725
aI725
aI725
aI725
aI725
aI725
aI725
aI746
aI746
aI746
aI746
aI746
aI746
aI746
aI746
aI746
aI746
aI746
aI746
aI602
aI602
aI602
aI602
aI602
aI602
aI602
aI602
aI602
aI602
aI602
aI701
aI701
aI701
aI701
aI701
aI701
aI701
aI701
aI701
aI701
aI701
aI701
aI701
aI633
aI633
aI633
aI633
aI636
aI636
aI636
aI636
aI636
aI636
aI636
aI636
aI636
aI636
aI636
aI636
aI636
aI636
aI695
aI695
aI695
aI691
aI691
aI691
aI691
aI691
aI691
aI691
aI691
aI691
aI691
aI691
aI691
aI678
aI678
aI678
aI678
aI678
aI639
aI639
aI639
aI639
aI639
aI639
aI639
aI639
aI639
aI639
aI639
aI639
aI633
aI633
aI633
aI633
aI633
aI633
aI633
aI633
aI633
aI633
aI633
aI633
aI634
aI634
aI634
aI634
aI634
aI634
aI728
aI728
aI728
aI728
aI728
aI728
aI704
aI704
aI704
aI704
aI704
aI704
aI704
aI704
aI704
aI704
aI704
aI704
aI698
aI698
aI698
aI698
aI698
aI698
aI698
aI701
aI701
aI701
aI701
aI646
aI646
aI646
aI646
aI646
aI644
aI644
aI644
aI644
aI644
aI644
aI644
aI644
aI644
aI644
aI660
aI660
aI660
aI660
aI660
aI660
aI660
aI706
aI706
aI706
aI706
aI706
aI706
aI706
aI706
aI706
aI706
aI706
aI706
aI706
aI641
aI641
aI641
aI641
aI641
aI641
aI641
aI641
aI639
aI639
aI639
aI639
aI639
aI639
aI639
aI663
aI663
aI663
aI663
aI663
aI663
aI638
aI638
aI638
aI638
aI638
aI630
aI630
aI630
aI630
aI630
aI630
aI630
aI630
aI630
aI630
aI630
aI630
aI643
aI643
aI643
aI643
aI643
aI643
aI643
aI741
aI741
aI741
aI697
aI697
aI697
aI697
aI697
aI697
aI697
aI697
aI697
aI697
aI697
aI697
aI681
aI681
aI681
aI681
aI681
aI635
aI635
aI635
aI635
aI635
aI635
aI632
aI632
aI632
aI632
aI632
aI632
aI632
aI632
aI632
aI632
aI632
aI632
aI640
aI640
aI640
aI640
aI640
aI640
aI640
aI640
aI640
aI640
aI641
aI641
aI641
aI641
aI641
aI641
aI641
aI641
aI699
aI699
aI699
aI699
aI641
aI641
aI641
aI725
aI725
aI725
aI725
aI725
aI725
aI725
aI725
aI725
aI725
aI729
aI729
aI729
aI695
aI695
aI695
aI695
aI695
aI695
aI695
aI691
aI691
aI691
aI691
aI691
aI691
aI691
aI691
aI691
aI691
asg13
(lp52
I668
aI668
aI668
aI719
aI771
aI771
aI771
aI771
aI771
aI771
aI771
aI771
aI771
aI771
aI643
aI768
aI768
aI643
aI662
aI662
aI662
aI662
aI662
aI662
aI662
aI662
aI662
aI662
aI662
aI662
aI647
aI647
aI647
aI647
aI647
aI647
aI647
aI647
aI647
aI647
aI647
aI654
aI654
aI654
aI654
aI636
aI636
aI636
aI916
aI636
aI636
aI636
aI636
aI636
aI636
aI636
aI636
aI641
aI641
aI923
aI641
aI641
aI641
aI641
aI641
aI641
aI641
aI641
aI641
aI653
aI653
aI653
aI653
aI653
aI653
aI653
aI653
aI653
aI653
aI653
aI665
aI665
aI665
aI665
aI665
aI665
aI665
aI665
aI665
aI665
aI665
aI665
aI665
aI650
aI650
aI650
aI650
aI650
aI650
aI650
aI650
aI650
aI650
aI650
aI650
aI657
aI657
aI657
aI657
aI657
aI657
aI657
aI657
aI657
aI657
aI657
aI660
aI660
aI660
aI660
aI660
aI660
aI660
aI660
aI660
aI720
aI720
aI720
aI636
aI636
aI636
aI634
aI634
aI634
aI634
aI634
aI636
aI636
aI636
aI636
aI636
aI643
aI643
aI643
aI643
aI643
aI643
aI643
aI643
aI643
aI643
aI643
aI643
aI656
aI656
aI656
aI656
aI656
aI656
aI656
aI708
aI708
aI708
aI681
aI681
aI681
aI681
aI681
aI681
aI681
aI681
aI681
aI681
aI681
aI677
aI677
aI677
aI677
aI641
aI641
aI641
aI641
aI641
aI641
aI924
aI1037
aI641
aI641
aI634
aI634
aI634
aI634
aI634
aI634
aI634
aI634
aI636
aI636
aI636
aI636
aI636
aI636
aI636
aI636
aI636
aI636
aI636
aI636
aI638
aI638
aI638
aI638
aI638
aI638
aI638
aI638
aI638
aI638
aI638
aI638
aI630
aI630
aI630
aI630
aI630
aI630
aI630
aI630
aI643
aI643
aI643
aI662
aI681
aI681
aI681
aI681
aI681
aI681
aI681
aI681
aI681
aI681
aI685
aI685
aI702
aI702
aI659
aI659
aI659
aI659
aI659
aI659
aI641
aI641
aI641
aI641
aI641
aI641
aI641
aI641
aI635
aI635
aI635
aI635
aI635
aI635
aI635
aI635
aI635
aI635
aI635
aI635
aI638
aI638
aI638
aI638
aI638
aI638
aI638
aI638
aI635
aI635
aI635
aI635
aI635
aI632
aI632
aI632
aI632
aI632
aI632
aI632
aI632
aI632
aI632
aI661
aI661
aI725
aI725
aI725
aI725
aI712
aI725
aI725
aI725
aI725
aI725
aI725
aI725
aI746
aI746
aI746
aI746
aI746
aI746
aI746
aI746
aI746
aI746
aI746
aI746
aI602
aI602
aI602
aI602
aI602
aI602
aI602
aI602
aI602
aI602
aI602
aI701
aI701
aI701
aI701
aI701
aI701
aI701
aI701
aI701
aI701
aI701
aI701
aI701
aI633
aI633
aI633
aI633
aI636
aI636
aI636
aI636
aI636
aI636
aI636
aI636
aI636
aI636
aI636
aI636
aI636
aI636
aI695
aI695
aI695
aI691
aI691
aI691
aI691
aI691
aI691
aI691
aI691
aI691
aI691
aI691
aI691
aI678
aI678
aI678
aI678
aI678
aI639
aI639
aI639
aI639
aI639
aI639
aI639
aI639
aI639
aI639
aI639
aI639
aI633
aI633
aI633
aI633
aI633
aI633
aI633
aI633
aI633
aI633
aI633
aI633
aI634
aI634
aI634
aI634
aI634
aI634
aI728
aI728
aI728
aI728
aI728
aI728
aI704
aI704
aI704
aI704
aI704
aI704
aI704
aI704
aI704
aI704
aI704
aI704
aI698
aI698
aI698
aI698
aI698
aI698
aI698
aI701
aI701
aI701
aI701
aI646
aI646
aI646
aI646
aI646
aI644
aI644
aI644
aI644
aI644
aI644
aI644
aI644
aI644
aI644
aI660
aI660
aI660
aI660
aI660
aI660
aI660
aI706
aI706
aI706
aI706
aI706
aI706
aI706
aI706
aI706
aI706
aI706
aI706
aI706
aI641
aI641
aI641
aI641
aI641
aI641
aI641
aI641
aI639
aI639
aI639
aI639
aI639
aI639
aI639
aI663
aI663
aI663
aI663
aI663
aI663
aI638
aI638
aI638
aI638
aI638
aI630
aI630
aI630
aI630
aI630
aI630
aI630
aI630
aI630
aI630
aI630
aI630
aI643
aI643
aI643
aI643
aI643
aI643
aI643
aI741
aI741
aI741
aI697
aI697
aI697
aI697
aI697
aI697
aI697
aI697
aI697
aI697
aI697
aI697
aI681
aI681
aI681
aI681
aI681
aI635
aI635
aI635
aI635
aI635
aI635
aI632
aI632
aI632
aI632
aI632
aI632
aI632
aI632
aI632
aI632
aI632
aI632
aI640
aI640
aI640
aI640
aI640
aI640
aI640
aI640
aI640
aI640
aI641
aI641
aI641
aI641
aI641
aI641
aI641
aI641
aI699
aI699
aI699
aI699
aI641
aI641
aI641
aI725
aI725
aI725
aI725
aI725
aI725
aI725
aI725
aI725
aI725
aI729
aI729
aI729
aI695
aI695
aI695
aI695
aI695
aI695
aI695
aI691
aI691
aI691
aI691
aI691
aI691
aI691
aI691
aI691
aI691
asg15
(lp53
I532
aI532
aI532
aI570
aI609
aI609
aI609
aI609
aI609
aI609
aI609
aI609
aI609
aI609
aI513
aI606
aI606
aI513
aI527
aI527
aI527
aI527
aI527
aI527
aI527
aI527
aI527
aI527
aI527
aI527
aI516
aI516
aI516
aI516
aI516
aI516
aI516
aI516
aI516
aI516
aI516
aI521
aI521
aI521
aI521
aI507
aI507
aI507
aI724
aI507
aI507
aI507
aI507
aI507
aI507
aI507
aI507
aI511
aI511
aI729
aI511
aI511
aI511
aI511
aI511
aI511
aI511
aI511
aI511
aI520
aI520
aI520
aI520
aI520
aI520
aI520
aI520
aI520
aI520
aI520
aI529
aI529
aI529
aI529
aI529
aI529
aI529
aI529
aI529
aI529
aI529
aI529
aI529
aI518
aI518
aI518
aI518
aI518
aI518
aI518
aI518
aI518
aI518
aI518
aI518
aI523
aI523
aI523
aI523
aI523
aI523
aI523
aI523
aI523
aI523
aI523
aI525
aI525
aI525
aI525
aI525
aI525
aI525
aI525
aI525
aI570
aI570
aI570
aI507
aI507
aI507
aI506
aI506
aI506
aI506
aI506
aI507
aI507
aI507
aI507
aI507
aI513
aI513
aI513
aI513
aI513
aI513
aI513
aI513
aI513
aI513
aI513
aI513
aI522
aI522
aI522
aI522
aI522
aI522
aI522
aI561
aI561
aI561
aI541
aI541
aI541
aI541
aI541
aI541
aI541
aI541
aI541
aI541
aI541
aI538
aI538
aI538
aI538
aI511
aI511
aI511
aI511
aI511
aI511
aI730
aI817
aI511
aI511
aI506
aI506
aI506
aI506
aI506
aI506
aI506
aI506
aI507
aI507
aI507
aI507
aI507
aI507
aI507
aI507
aI507
aI507
aI507
aI507
aI509
aI509
aI509
aI509
aI509
aI509
aI509
aI509
aI509
aI509
aI509
aI509
aI503
aI503
aI503
aI503
aI503
aI503
aI503
aI503
aI512
aI512
aI512
aI527
aI541
aI541
aI541
aI541
aI541
aI541
aI541
aI541
aI541
aI541
aI544
aI544
aI557
aI557
aI525
aI525
aI525
aI525
aI525
aI525
aI511
aI511
aI511
aI511
aI511
aI511
aI511
aI511
aI507
aI507
aI507
aI507
aI507
aI507
aI507
aI507
aI507
aI507
aI507
aI507
aI509
aI509
aI509
aI509
aI509
aI509
aI509
aI509
aI506
aI506
aI506
aI506
aI506
aI504
aI504
aI504
aI504
aI504
aI504
aI504
aI504
aI504
aI504
aI527
aI527
aI574
aI574
aI574
aI574
aI564
aI574
aI574
aI574
aI574
aI574
aI574
aI574
aI590
aI590
aI590
aI590
aI590
aI590
aI590
aI590
aI590
aI590
aI590
aI590
aI463
aI463
aI463
aI463
aI463
aI463
aI463
aI463
aI463
aI463
aI463
aI550
aI550
aI550
aI550
aI550
aI550
aI550
aI550
aI550
aI550
aI550
aI550
aI550
aI505
aI505
aI505
aI505
aI507
aI507
aI507
aI507
aI507
aI507
aI507
aI507
aI507
aI507
aI507
aI507
aI507
aI507
aI552
aI552
aI552
aI542
aI542
aI542
aI542
aI542
aI542
aI542
aI542
aI542
aI542
aI542
aI542
aI539
aI539
aI539
aI539
aI539
aI510
aI510
aI510
aI510
aI510
aI510
aI510
aI510
aI510
aI510
aI510
aI510
aI505
aI505
aI505
aI505
aI505
aI505
aI505
aI505
aI505
aI505
aI505
aI505
aI506
aI506
aI506
aI506
aI506
aI506
aI577
aI577
aI577
aI577
aI577
aI577
aI558
aI558
aI558
aI558
aI558
aI558
aI558
aI558
aI558
aI558
aI558
aI558
aI548
aI548
aI548
aI548
aI548
aI548
aI548
aI556
aI556
aI556
aI556
aI515
aI515
aI515
aI515
aI515
aI513
aI513
aI513
aI513
aI513
aI513
aI513
aI513
aI513
aI513
aI525
aI525
aI525
aI525
aI525
aI525
aI525
aI560
aI560
aI560
aI560
aI560
aI560
aI560
aI560
aI560
aI560
aI560
aI560
aI560
aI512
aI512
aI512
aI512
aI512
aI512
aI512
aI512
aI510
aI510
aI510
aI510
aI510
aI510
aI510
aI528
aI528
aI528
aI528
aI528
aI528
aI509
aI509
aI509
aI509
aI509
aI503
aI503
aI503
aI503
aI503
aI503
aI503
aI503
aI503
aI503
aI503
aI503
aI512
aI512
aI512
aI512
aI512
aI512
aI512
aI586
aI586
aI586
aI546
aI546
aI546
aI546
aI546
aI546
aI546
aI546
aI546
aI546
aI546
aI546
aI541
aI541
aI541
aI541
aI541
aI506
aI506
aI506
aI506
aI506
aI506
aI504
aI504
aI504
aI504
aI504
aI504
aI504
aI504
aI504
aI504
aI504
aI504
aI510
aI510
aI510
aI510
aI510
aI510
aI510
aI510
aI510
aI510
aI511
aI511
aI511
aI511
aI511
aI511
aI511
aI511
aI555
aI555
aI555
aI555
aI511
aI511
aI511
aI574
aI574
aI574
aI574
aI574
aI574
aI574
aI574
aI574
aI574
aI577
aI577
aI577
aI552
aI552
aI552
aI552
aI552
aI552
aI552
aI542
aI542
aI542
aI542
aI542
aI542
aI542
aI542
aI542
aI542
asg17
(lp54
I284
aI284
aI284
aI394
aI394
aI320
aI320
aI320
aI320
aI320
aI320
aI320
aI320
aI320
aI274
aI319
aI319
aI274
aI282
aI282
aI282
aI282
aI282
aI282
aI282
aI282
aI282
aI282
aI282
aI282
aI276
aI276
aI276
aI276
aI276
aI276
aI276
aI276
aI276
aI276
aI276
aI277
aI277
aI378
aI378
aI271
aI271
aI271
aI271
aI271
aI271
aI271
aI271
aI271
aI271
aI271
aI271
aI273
aI273
aI273
aI312
aI352
aI332
aI273
aI273
aI273
aI273
aI273
aI273
aI277
aI277
aI277
aI277
aI277
aI378
aI500
aI358
aI277
aI277
aI277
aI282
aI386
aI282
aI386
aI386
aI282
aI282
aI282
aI282
aI386
aI510
aI365
aI282
aI277
aI277
aI277
aI277
aI277
aI277
aI277
aI277
aI277
aI277
aI277
aI277
aI279
aI279
aI279
aI279
aI279
aI279
aI279
aI279
aI381
aI340
aI279
aI280
aI280
aI280
aI280
aI280
aI280
aI280
aI280
aI280
aI301
aI301
aI301
aI271
aI271
aI271
aI270
aI270
aI270
aI270
aI270
aI271
aI271
aI271
aI271
aI271
aI274
aI274
aI274
aI274
aI274
aI274
aI274
aI274
aI274
aI274
aI274
aI274
aI381
aI279
aI279
aI279
aI381
aI320
aI320
aI298
aI298
aI298
aI288
aI288
aI288
aI288
aI394
aI521
aI373
aI288
aI288
aI288
aI288
aI288
aI288
aI288
aI288
aI273
aI273
aI273
aI273
aI273
aI273
aI273
aI273
aI273
aI273
aI270
aI270
aI270
aI270
aI270
aI270
aI368
aI485
aI369
aI271
aI271
aI271
aI271
aI271
aI271
aI271
aI271
aI271
aI271
aI349
aI468
aI605
aI448
aI311
aI272
aI272
aI272
aI272
aI272
aI272
aI272
aI272
aI269
aI269
aI269
aI269
aI269
aI269
aI269
aI269
aI274
aI274
aI274
aI281
aI374
aI289
aI289
aI289
aI289
aI289
aI289
aI289
aI289
aI289
aI290
aI290
aI296
aI296
aI280
aI280
aI280
aI280
aI280
aI280
aI273
aI273
aI273
aI273
aI273
aI273
aI273
aI273
aI271
aI271
aI271
aI271
aI271
aI271
aI271
aI271
aI271
aI271
aI271
aI271
aI371
aI489
aI430
aI272
aI272
aI331
aI430
aI272
aI271
aI271
aI271
aI271
aI271
aI270
aI270
aI270
aI270
aI270
aI270
aI270
aI270
aI270
aI270
aI281
aI281
aI303
aI303
aI303
aI303
aI301
aI395
aI303
aI303
aI303
aI417
aI303
aI303
aI311
aI311
aI405
aI311
aI311
aI311
aI311
aI311
aI311
aI311
aI311
aI311
aI213
aI213
aI213
aI213
aI213
aI213
aI213
aI213
aI213
aI213
aI213
aI280
aI280
aI280
aI280
aI280
aI280
aI280
aI280
aI280
aI280
aI280
aI280
aI280
aI270
aI270
aI270
aI270
aI271
aI271
aI271
aI271
aI271
aI271
aI271
aI271
aI271
aI271
aI271
aI271
aI271
aI271
aI295
aI295
aI295
aI276
aI276
aI276
aI276
aI276
aI276
aI276
aI276
aI276
aI276
aI276
aI276
aI288
aI288
aI288
aI288
aI288
aI272
aI272
aI272
aI272
aI272
aI272
aI272
aI272
aI272
aI272
aI272
aI272
aI270
aI270
aI270
aI270
aI270
aI270
aI270
aI270
aI270
aI270
aI270
aI270
aI271
aI271
aI271
aI271
aI271
aI271
aI306
aI306
aI306
aI306
aI306
aI306
aI298
aI298
aI298
aI298
aI298
aI298
aI298
aI298
aI298
aI298
aI298
aI298
aI278
aI278
aI278
aI278
aI278
aI278
aI278
aI296
aI296
aI296
aI296
aI275
aI275
aI275
aI275
aI275
aI274
aI274
aI274
aI274
aI274
aI274
aI274
aI274
aI274
aI274
aI280
aI280
aI280
aI280
aI280
aI280
aI280
aI296
aI296
aI296
aI296
aI296
aI296
aI296
aI296
aI296
aI296
aI296
aI296
aI296
aI273
aI273
aI273
aI273
aI273
aI273
aI273
aI273
aI272
aI272
aI272
aI272
aI272
aI272
aI272
aI281
aI281
aI281
aI281
aI281
aI281
aI272
aI272
aI272
aI272
aI272
aI269
aI269
aI269
aI269
aI269
aI269
aI269
aI269
aI269
aI269
aI269
aI269
aI274
aI274
aI274
aI274
aI274
aI274
aI274
aI310
aI310
aI310
aI278
aI278
aI278
aI278
aI278
aI278
aI278
aI278
aI278
aI278
aI278
aI278
aI289
aI289
aI289
aI289
aI289
aI271
aI271
aI271
aI271
aI271
aI271
aI270
aI270
aI270
aI270
aI270
aI270
aI270
aI270
aI270
aI270
aI270
aI270
aI273
aI273
aI273
aI273
aI273
aI273
aI273
aI273
aI273
aI273
aI273
aI273
aI273
aI273
aI273
aI273
aI273
aI273
aI295
aI295
aI295
aI295
aI273
aI273
aI273
aI303
aI303
aI303
aI303
aI303
aI303
aI303
aI303
aI303
aI303
aI305
aI305
aI305
aI295
aI295
aI295
aI295
aI295
aI295
aI295
aI276
aI276
aI276
aI276
aI276
aI276
aI276
aI276
aI276
aI276
asg19
(lp55
F1.0
aF1.0
aF1.0
aF1.0
aF1.0
aF1.0
aF1.0
aF1.0
aF1.0
aF1.0
aF1.0
aF1.0
aF1.0
aF1.0
aF1.0
aF1.0
aF1.0
aF1.0
aF1.0
aF1.0
aF1.0
aF1.0
aF1.0
aF1.0
aF1.0
aF1.0
aF1.0
aF1.0
aF1.0
aF1.0
aF1.0
aF1.0
aF1.0
aF1.0
aF1.0
aF1.0
aF1.0
aF1.0
aF1.0
aF1.0
aF1.0
aF1.0
aF1.0
aF1.0
aF1.0
aF1.0
aF1.0
aF1.0
aF1.5
aF1.0
aF1.0
aF1.0
aF1.0
aF1.0
aF1.0
aF1.0
aF1.0
aF1.0
aF1.0
aF1.5
aF1.0
aF1.0
aF1.0
aF1.0
aF1.0
aF1.0
aF1.0
aF1.0
aF1.0
aF1.0
aF1.0
aF1.0
aF1.0
aF1.0
aF1.0
aF1.0
aF1.0
aF1.0
aF1.0
aF1.0
aF1.0
aF1.0
aF1.0
aF1.0
aF1.0
aF1.0
aF1.0
aF1.0
aF1.0
aF1.0
aF1.0
aF1.0
aF1.0
aF1.0
aF1.0
aF1.0
aF1.0
aF1.0
aF1.0
aF1.0
aF1.0
aF1.0
aF1.0
aF1.0
aF1.0
aF1.0
aF1.0
aF1.0
aF1.0
aF1.0
aF1.0
aF1.0
aF1.0
aF1.0
aF1.0
aF1.0
aF1.0
aF1.0
aF1.0
aF1.0
aF1.0
aF1.0
aF1.0
aF1.0
aF1.0
aF1.0
aF1.0
aF1.0
aF1.0
aF1.0
aF1.0
aF1.0
aF1.0
aF1.0
aF1.0
aF1.0
aF1.0
aF1.0
aF1.0
aF1.0
aF1.0
aF1.0
aF1.0
aF1.0
aF1.0
aF1.0
aF1.0
aF1.0
aF1.0
aF1.0
aF1.0
aF1.0
aF1.0
aF1.0
aF1.0
aF1.0
aF1.0
aF1.0
aF1.0
aF1.0
aF1.0
aF1.0
aF1.0
aF1.0
aF1.0
aF1.0
aF1.0
aF1.0
aF1.0
aF1.0
aF1.0
aF1.0
aF1.0
aF1.0
aF1.0
aF1.0
aF1.0
aF1.0
aF1.0
aF1.0
aF1.0
aF1.0
aF1.0
aF1.0
aF1.5
aF1.7
aF1.0
aF1.0
aF1.0
aF1.0
aF1.0
aF1.0
aF1.0
aF1.0
aF1.0
aF1.0
aF1.0
aF1.0
aF1.0
aF1.0
aF1.0
aF1.0
aF1.0
aF1.0
aF1.0
aF1.0
aF1.0
aF1.0
aF1.0
aF1.0
aF1.0
aF1.0
aF1.0
aF1.0
aF1.0
aF1.0
aF1.0
aF1.0
aF1.0
aF1.0
aF1.0
aF1.0
aF1.0
aF1.0
aF1.0
aF1.0
aF1.0
aF1.0
aF1.0
aF1.0
aF1.0
aF1.0
aF1.0
aF1.0
aF1.0
aF1.0
aF1.0
aF1.0
aF1.0
aF1.0
aF1.0
aF1.0
aF1.0
aF1.0
aF1.0
aF1.0
aF1.0
aF1.0
aF1.0
aF1.0
aF1.0
aF1.0
aF1.0
aF1.0
aF1.0
aF1.0
aF1.0
aF1.0
aF1.0
aF1.0
aF1.0
aF1.0
aF1.0
aF1.0
aF1.0
aF1.0
aF1.0
aF1.0
aF1.0
aF1.0
aF1.0
aF1.0
aF1.0
aF1.0
aF1.0
aF1.0
aF1.0
aF1.0
aF1.0
aF1.0
aF1.0
aF1.0
aF1.0
aF1.0
aF1.0
aF1.0
aF1.0
aF1.0
aF1.0
aF1.0
aF1.0
aF1.0
aF1.0
aF1.0
aF1.0
aF1.0
aF1.0
aF1.0
aF1.0
aF1.0
aF1.0
aF1.0
aF1.0
aF1.0
aF1.0
aF1.0
aF1.0
aF1.0
aF1.0
aF1.0
aF1.0
aF1.0
aF1.0
aF1.0
aF1.0
aF1.0
aF1.0
aF1.0
aF1.0
aF1.0
aF1.0
aF1.0
aF1.0
aF1.0
aF1.0
aF1.0
aF1.0
aF1.0
aF1.0
aF1.0
aF1.0
aF1.0
aF1.0
aF1.0
aF1.0
aF1.0
aF1.0
aF1.0
aF1.0
aF1.0
aF1.0
aF1.0
aF1.0
aF1.0
aF1.0
aF1.0
aF1.0
aF1.0
aF1.0
aF1.0
aF1.0
aF1.0
aF1.0
aF1.0
aF1.0
aF1.0
aF1.0
aF1.0
aF1.0
aF1.0
aF1.0
aF1.0
aF1.0
aF1.0
aF1.0
aF1.0
aF1.0
aF1.0
aF1.0
aF1.0
aF1.0
aF1.0
aF1.0
aF1.0
aF1.0
aF1.0
aF1.0
aF1.0
aF1.0
aF1.0
aF1.0
aF1.0
aF1.0
aF1.0
aF1.0
aF1.0
aF1.0
aF1.0
aF1.0
aF1.0
aF1.0
aF1.0
aF1.0
aF1.0
aF1.0
aF1.0
aF1.0
aF1.0
aF1.0
aF1.0
aF1.0
aF1.0
aF1.0
aF1.0
aF1.0
aF1.0
aF1.0
aF1.0
aF1.0
aF1.0
aF1.0
aF1.0
aF1.0
aF1.0
aF1.0
aF1.0
aF1.0
aF1.0
aF1.0
aF1.0
aF1.0
aF1.0
aF1.0
aF1.0
aF1.0
aF1.0
aF1.0
aF1.0
aF1.0
aF1.0
aF1.0
aF1.0
aF1.0
aF1.0
aF1.0
aF1.0
aF1.0
aF1.0
aF1.0
aF1.0
aF1.0
aF1.0
aF1.0
aF1.0
aF1.0
aF1.0
aF1.0
aF1.0
aF1.0
aF1.0
aF1.0
aF1.0
aF1.0
aF1.0
aF1.0
aF1.0
aF1.0
aF1.0
aF1.0
aF1.0
aF1.0
aF1.0
aF1.0
aF1.0
aF1.0
aF1.0
aF1.0
aF1.0
aF1.0
aF1.0
aF1.0
aF1.0
aF1.0
aF1.0
aF1.0
aF1.0
aF1.0
aF1.0
aF1.0
aF1.0
aF1.0
aF1.0
aF1.0
aF1.0
aF1.0
aF1.0
aF1.0
aF1.0
aF1.0
aF1.0
aF1.0
aF1.0
aF1.0
aF1.0
aF1.0
aF1.0
aF1.0
aF1.0
aF1.0
aF1.0
aF1.0
aF1.0
aF1.0
aF1.0
aF1.0
aF1.0
aF1.0
aF1.0
aF1.0
aF1.0
aF1.0
aF1.0
aF1.0
aF1.0
aF1.0
aF1.0
aF1.0
aF1.0
aF1.0
aF1.0
aF1.0
aF1.0
aF1.0
aF1.0
aF1.0
aF1.0
aF1.0
aF1.0
aF1.0
aF1.0
aF1.0
aF1.0
aF1.0
aF1.0
aF1.0
aF1.0
aF1.0
aF1.0
aF1.0
aF1.0
aF1.0
aF1.0
aF1.0
aF1.0
aF1.0
aF1.0
aF1.0
aF1.0
aF1.0
aF1.0
aF1.0
aF1.0
aF1.0
aF1.0
aF1.0
aF1.0
aF1.0
aF1.0
aF1.0
aF1.0
aF1.0
aF1.0
aF1.0
aF1.0
aF1.0
aF1.0
aF1.0
aF1.0
aF1.0
aF1.0
aF1.0
aF1.0
aF1.0
aF1.0
aF1.0
aF1.0
aF1.0
aF1.0
aF1.0
aF1.0
aF1.0
aF1.0
aF1.0
aF1.0
aF1.0
aF1.0
aF1.0
aF1.0
aF1.0
aF1.0
aF1.0
aF1.0
aF1.0
aF1.0
aF1.0
aF1.0
aF1.0
aF1.0
aF1.0
aF1.0
aF1.0
aF1.0
aF1.0
aF1.0
aF1.0
aF1.0
aF1.0
aF1.0
aF1.0
aF1.0
aF1.0
aF1.0
aF1.0
aF1.0
aF1.0
asg21
(lp56
I532
aI532
aI532
aI570
aI609
aI609
aI609
aI609
aI609
aI609
aI609
aI609
aI609
aI609
aI513
aI606
aI606
aI513
aI527
aI527
aI527
aI527
aI527
aI527
aI527
aI527
aI527
aI527
aI527
aI527
aI516
aI516
aI516
aI516
aI516
aI516
aI516
aI516
aI516
aI516
aI516
aI521
aI521
aI521
aI521
aI507
aI507
aI507
aI724
aI507
aI507
aI507
aI507
aI507
aI507
aI507
aI507
aI511
aI511
aI729
aI511
aI511
aI511
aI511
aI511
aI511
aI511
aI511
aI511
aI520
aI520
aI520
aI520
aI520
aI520
aI520
aI520
aI520
aI520
aI520
aI529
aI529
aI529
aI529
aI529
aI529
aI529
aI529
aI529
aI529
aI529
aI529
aI529
aI518
aI518
aI518
aI518
aI518
aI518
aI518
aI518
aI518
aI518
aI518
aI518
aI523
aI523
aI523
aI523
aI523
aI523
aI523
aI523
aI523
aI523
aI523
aI525
aI525
aI525
aI525
aI525
aI525
aI525
aI525
aI525
aI570
aI570
aI570
aI507
aI507
aI507
aI506
aI506
aI506
aI506
aI506
aI507
aI507
aI507
aI507
aI507
aI513
aI513
aI513
aI513
aI513
aI513
aI513
aI513
aI513
aI513
aI513
aI513
aI522
aI522
aI522
aI522
aI522
aI522
aI522
aI561
aI561
aI561
aI541
aI541
aI541
aI541
aI541
aI541
aI541
aI541
aI541
aI541
aI541
aI538
aI538
aI538
aI538
aI511
aI511
aI511
aI511
aI511
aI511
aI730
aI817
aI511
aI511
aI506
aI506
aI506
aI506
aI506
aI506
aI506
aI506
aI507
aI507
aI507
aI507
aI507
aI507
aI507
aI507
aI507
aI507
aI507
aI507
aI509
aI509
aI509
aI509
aI509
aI509
aI509
aI509
aI509
aI509
aI509
aI509
aI503
aI503
aI503
aI503
aI503
aI503
aI503
aI503
aI512
aI512
aI512
aI527
aI541
aI541
aI541
aI541
aI541
aI541
aI541
aI541
aI541
aI541
aI544
aI544
aI557
aI557
aI525
aI525
aI525
aI525
aI525
aI525
aI511
aI511
aI511
aI511
aI511
aI511
aI511
aI511
aI507
aI507
aI507
aI507
aI507
aI507
aI507
aI507
aI507
aI507
aI507
aI507
aI509
aI509
aI509
aI509
aI509
aI509
aI509
aI509
aI506
aI506
aI506
aI506
aI506
aI504
aI504
aI504
aI504
aI504
aI504
aI504
aI504
aI504
aI504
aI527
aI527
aI574
aI574
aI574
aI574
aI564
aI574
aI574
aI574
aI574
aI574
aI574
aI574
aI590
aI590
aI590
aI590
aI590
aI590
aI590
aI590
aI590
aI590
aI590
aI590
aI463
aI463
aI463
aI463
aI463
aI463
aI463
aI463
aI463
aI463
aI463
aI550
aI550
aI550
aI550
aI550
aI550
aI550
aI550
aI550
aI550
aI550
aI550
aI550
aI505
aI505
aI505
aI505
aI507
aI507
aI507
aI507
aI507
aI507
aI507
aI507
aI507
aI507
aI507
aI507
aI507
aI507
aI552
aI552
aI552
aI542
aI542
aI542
aI542
aI542
aI542
aI542
aI542
aI542
aI542
aI542
aI542
aI539
aI539
aI539
aI539
aI539
aI510
aI510
aI510
aI510
aI510
aI510
aI510
aI510
aI510
aI510
aI510
aI510
aI505
aI505
aI505
aI505
aI505
aI505
aI505
aI505
aI505
aI505
aI505
aI505
aI506
aI506
aI506
aI506
aI506
aI506
aI577
aI577
aI577
aI577
aI577
aI577
aI558
aI558
aI558
aI558
aI558
aI558
aI558
aI558
aI558
aI558
aI558
aI558
aI548
aI548
aI548
aI548
aI548
aI548
aI548
aI556
aI556
aI556
aI556
aI515
aI515
aI515
aI515
aI515
aI513
aI513
aI513
aI513
aI513
aI513
aI513
aI513
aI513
aI513
aI525
aI525
aI525
aI525
aI525
aI525
aI525
aI560
aI560
aI560
aI560
aI560
aI560
aI560
aI560
aI560
aI560
aI560
aI560
aI560
aI512
aI512
aI512
aI512
aI512
aI512
aI512
aI512
aI510
aI510
aI510
aI510
aI510
aI510
aI510
aI528
aI528
aI528
aI528
aI528
aI528
aI509
aI509
aI509
aI509
aI509
aI503
aI503
aI503
aI503
aI503
aI503
aI503
aI503
aI503
aI503
aI503
aI503
aI512
aI512
aI512
aI512
aI512
aI512
aI512
aI586
aI586
aI586
aI546
aI546
aI546
aI546
aI546
aI546
aI546
aI546
aI546
aI546
aI546
aI546
aI541
aI541
aI541
aI541
aI541
aI506
aI506
aI506
aI506
aI506
aI506
aI504
aI504
aI504
aI504
aI504
aI504
aI504
aI504
aI504
aI504
aI504
aI504
aI510
aI510
aI510
aI510
aI510
aI510
aI510
aI510
aI510
aI510
aI511
aI511
aI511
aI511
aI511
aI511
aI511
aI511
aI555
aI555
aI555
aI555
aI511
aI511
aI511
aI574
aI574
aI574
aI574
aI574
aI574
aI574
aI574
aI574
aI574
aI577
aI577
aI577
aI552
aI552
aI552
aI552
aI552
aI552
aI552
aI542
aI542
aI542
aI542
aI542
aI542
aI542
aI542
aI542
aI542
asg23
(lp57
F1.0
aF1.0
aF1.0
aF1.0
aF1.0
aF1.0
aF1.0
aF1.0
aF1.0
aF1.0
aF1.0
aF1.0
aF1.0
aF1.0
aF1.0
aF1.0
aF1.0
aF1.0
aF1.0
aF1.0
aF1.0
aF1.0
aF1.0
aF1.0
aF1.0
aF1.0
aF1.0
aF1.0
aF1.0
aF1.0
aF1.0
aF1.0
aF1.0
aF1.0
aF1.0
aF1.0
aF1.0
aF1.0
aF1.0
aF1.0
aF1.0
aF1.0
aF1.0
aF1.0
aF1.0
aF1.0
aF1.0
aF1.0
aF1.5
aF1.0
aF1.0
aF1.0
aF1.0
aF1.0
aF1.0
aF1.0
aF1.0
aF1.0
aF1.0
aF1.5
aF1.0
aF1.0
aF1.0
aF1.0
aF1.0
aF1.0
aF1.0
aF1.0
aF1.0
aF1.0
aF1.0
aF1.0
aF1.0
aF1.0
aF1.0
aF1.0
aF1.0
aF1.0
aF1.0
aF1.0
aF1.0
aF1.0
aF1.0
aF1.0
aF1.0
aF1.0
aF1.0
aF1.0
aF1.0
aF1.0
aF1.0
aF1.0
aF1.0
aF1.0
aF1.0
aF1.0
aF1.0
aF1.0
aF1.0
aF1.0
aF1.0
aF1.0
aF1.0
aF1.0
aF1.0
aF1.0
aF1.0
aF1.0
aF1.0
aF1.0
aF1.0
aF1.0
aF1.0
aF1.0
aF1.0
aF1.0
aF1.0
aF1.0
aF1.0
aF1.0
aF1.0
aF1.0
aF1.0
aF1.0
aF1.0
aF1.0
aF1.0
aF1.0
aF1.0
aF1.0
aF1.0
aF1.0
aF1.0
aF1.0
aF1.0
aF1.0
aF1.0
aF1.0
aF1.0
aF1.0
aF1.0
aF1.0
aF1.0
aF1.0
aF1.0
aF1.0
aF1.0
aF1.0
aF1.0
aF1.0
aF1.0
aF1.0
aF1.0
aF1.0
aF1.0
aF1.0
aF1.0
aF1.0
aF1.0
aF1.0
aF1.0
aF1.0
aF1.0
aF1.0
aF1.0
aF1.0
aF1.0
aF1.0
aF1.0
aF1.0
aF1.0
aF1.0
aF1.0
aF1.0
aF1.0
aF1.0
aF1.0
aF1.0
aF1.0
aF1.0
aF1.0
aF1.0
aF1.0
aF1.0
aF1.5
aF1.7
aF1.0
aF1.0
aF1.0
aF1.0
aF1.0
aF1.0
aF1.0
aF1.0
aF1.0
aF1.0
aF1.0
aF1.0
aF1.0
aF1.0
aF1.0
aF1.0
aF1.0
aF1.0
aF1.0
aF1.0
aF1.0
aF1.0
aF1.0
aF1.0
aF1.0
aF1.0
aF1.0
aF1.0
aF1.0
aF1.0
aF1.0
aF1.0
aF1.0
aF1.0
aF1.0
aF1.0
aF1.0
aF1.0
aF1.0
aF1.0
aF1.0
aF1.0
aF1.0
aF1.0
aF1.0
aF1.0
aF1.0
aF1.0
aF1.0
aF1.0
aF1.0
aF1.0
aF1.0
aF1.0
aF1.0
aF1.0
aF1.0
aF1.0
aF1.0
aF1.0
aF1.0
aF1.0
aF1.0
aF1.0
aF1.0
aF1.0
aF1.0
aF1.0
aF1.0
aF1.0
aF1.0
aF1.0
aF1.0
aF1.0
aF1.0
aF1.0
aF1.0
aF1.0
aF1.0
aF1.0
aF1.0
aF1.0
aF1.0
aF1.0
aF1.0
aF1.0
aF1.0
aF1.0
aF1.0
aF1.0
aF1.0
aF1.0
aF1.0
aF1.0
aF1.0
aF1.0
aF1.0
aF1.0
aF1.0
aF1.0
aF1.0
aF1.0
aF1.0
aF1.0
aF1.0
aF1.0
aF1.0
aF1.0
aF1.0
aF1.0
aF1.0
aF1.0
aF1.0
aF1.0
aF1.0
aF1.0
aF1.0
aF1.0
aF1.0
aF1.0
aF1.0
aF1.0
aF1.0
aF1.0
aF1.0
aF1.0
aF1.0
aF1.0
aF1.0
aF1.0
aF1.0
aF1.0
aF1.0
aF1.0
aF1.0
aF1.0
aF1.0
aF1.0
aF1.0
aF1.0
aF1.0
aF1.0
aF1.0
aF1.0
aF1.0
aF1.0
aF1.0
aF1.0
aF1.0
aF1.0
aF1.0
aF1.0
aF1.0
aF1.0
aF1.0
aF1.0
aF1.0
aF1.0
aF1.0
aF1.0
aF1.0
aF1.0
aF1.0
aF1.0
aF1.0
aF1.0
aF1.0
aF1.0
aF1.0
aF1.0
aF1.0
aF1.0
aF1.0
aF1.0
aF1.0
aF1.0
aF1.0
aF1.0
aF1.0
aF1.0
aF1.0
aF1.0
aF1.0
aF1.0
aF1.0
aF1.0
aF1.0
aF1.0
aF1.0
aF1.0
aF1.0
aF1.0
aF1.0
aF1.0
aF1.0
aF1.0
aF1.0
aF1.0
aF1.0
aF1.0
aF1.0
aF1.0
aF1.0
aF1.0
aF1.0
aF1.0
aF1.0
aF1.0
aF1.0
aF1.0
aF1.0
aF1.0
aF1.0
aF1.0
aF1.0
aF1.0
aF1.0
aF1.0
aF1.0
aF1.0
aF1.0
aF1.0
aF1.0
aF1.0
aF1.0
aF1.0
aF1.0
aF1.0
aF1.0
aF1.0
aF1.0
aF1.0
aF1.0
aF1.0
aF1.0
aF1.0
aF1.0
aF1.0
aF1.0
aF1.0
aF1.0
aF1.0
aF1.0
aF1.0
aF1.0
aF1.0
aF1.0
aF1.0
aF1.0
aF1.0
aF1.0
aF1.0
aF1.0
aF1.0
aF1.0
aF1.0
aF1.0
aF1.0
aF1.0
aF1.0
aF1.0
aF1.0
aF1.0
aF1.0
aF1.0
aF1.0
aF1.0
aF1.0
aF1.0
aF1.0
aF1.0
aF1.0
aF1.0
aF1.0
aF1.0
aF1.0
aF1.0
aF1.0
aF1.0
aF1.0
aF1.0
aF1.0
aF1.0
aF1.0
aF1.0
aF1.0
aF1.0
aF1.0
aF1.0
aF1.0
aF1.0
aF1.0
aF1.0
aF1.0
aF1.0
aF1.0
aF1.0
aF1.0
aF1.0
aF1.0
aF1.0
aF1.0
aF1.0
aF1.0
aF1.0
aF1.0
aF1.0
aF1.0
aF1.0
aF1.0
aF1.0
aF1.0
aF1.0
aF1.0
aF1.0
aF1.0
aF1.0
aF1.0
aF1.0
aF1.0
aF1.0
aF1.0
aF1.0
aF1.0
aF1.0
aF1.0
aF1.0
aF1.0
aF1.0
aF1.0
aF1.0
aF1.0
aF1.0
aF1.0
aF1.0
aF1.0
aF1.0
aF1.0
aF1.0
aF1.0
aF1.0
aF1.0
aF1.0
aF1.0
aF1.0
aF1.0
aF1.0
aF1.0
aF1.0
aF1.0
aF1.0
aF1.0
aF1.0
aF1.0
aF1.0
aF1.0
aF1.0
aF1.0
aF1.0
aF1.0
aF1.0
aF1.0
aF1.0
aF1.0
aF1.0
aF1.0
aF1.0
aF1.0
aF1.0
aF1.0
aF1.0
aF1.0
aF1.0
aF1.0
aF1.0
aF1.0
aF1.0
aF1.0
aF1.0
aF1.0
aF1.0
aF1.0
aF1.0
aF1.0
aF1.0
aF1.0
aF1.0
aF1.0
aF1.0
aF1.0
aF1.0
aF1.0
aF1.0
aF1.0
aF1.0
aF1.0
aF1.0
aF1.0
aF1.0
aF1.0
aF1.0
aF1.0
aF1.0
aF1.0
aF1.0
aF1.0
aF1.0
aF1.0
aF1.0
aF1.0
aF1.0
aF1.0
aF1.0
aF1.0
aF1.0
aF1.0
aF1.0
aF1.0
aF1.0
aF1.0
aF1.0
aF1.0
aF1.0
aF1.0
aF1.0
aF1.0
aF1.0
aF1.0
aF1.0
asg25
(lp58
F1.0
aF1.0
aF1.0
aF1.4
aF1.3
aF1.0
aF1.0
aF1.0
aF1.0
aF1.0
aF1.0
aF1.0
aF1.0
aF1.0
aF1.0
aF1.0
aF1.0
aF1.0
aF1.0
aF1.0
aF1.0
aF1.0
aF1.0
aF1.0
aF1.0
aF1.0
aF1.0
aF1.0
aF1.0
aF1.0
aF1.0
aF1.0
aF1.0
aF1.0
aF1.0
aF1.0
aF1.0
aF1.0
aF1.0
aF1.0
aF1.0
aF1.0
aF1.0
aF1.5
aF1.5
aF1.0
aF1.0
aF1.0
aF1.0
aF1.0
aF1.0
aF1.0
aF1.0
aF1.0
aF1.0
aF1.0
aF1.0
aF1.0
aF1.0
aF1.0
aF1.2
aF1.4
aF1.3
aF1.0
aF1.0
aF1.0
aF1.0
aF1.0
aF1.0
aF1.0
aF1.0
aF1.0
aF1.0
aF1.0
aF1.5
aF2.1
aF1.4
aF1.0
aF1.0
aF1.0
aF1.0
aF1.5
aF1.0
aF1.5
aF1.5
aF1.0
aF1.0
aF1.0
aF1.0
aF1.5
aF2.1
aF1.4
aF1.0
aF1.0
aF1.0
aF1.0
aF1.0
aF1.0
aF1.0
aF1.0
aF1.0
aF1.0
aF1.0
aF1.0
aF1.0
aF1.0
aF1.0
aF1.0
aF1.0
aF1.0
aF1.0
aF1.0
aF1.0
aF1.5
aF1.3
aF1.0
aF1.0
aF1.0
aF1.0
aF1.0
aF1.0
aF1.0
aF1.0
aF1.0
aF1.0
aF1.0
aF1.0
aF1.0
aF1.0
aF1.0
aF1.0
aF1.0
aF1.0
aF1.0
aF1.0
aF1.0
aF1.0
aF1.0
aF1.0
aF1.0
aF1.0
aF1.0
aF1.0
aF1.0
aF1.0
aF1.0
aF1.0
aF1.0
aF1.0
aF1.0
aF1.0
aF1.0
aF1.0
aF1.5
aF1.0
aF1.0
aF1.0
aF1.5
aF1.2
aF1.2
aF1.0
aF1.0
aF1.0
aF1.0
aF1.0
aF1.0
aF1.0
aF1.5
aF2.1
aF1.4
aF1.0
aF1.0
aF1.0
aF1.0
aF1.0
aF1.0
aF1.0
aF1.0
aF1.0
aF1.0
aF1.0
aF1.0
aF1.0
aF1.0
aF1.0
aF1.0
aF1.0
aF1.0
aF1.0
aF1.0
aF1.0
aF1.0
aF1.0
aF1.0
aF1.5
aF2.1
aF1.5
aF1.0
aF1.0
aF1.0
aF1.0
aF1.0
aF1.0
aF1.0
aF1.0
aF1.0
aF1.0
aF1.4
aI2
aF2.7
aF1.9
aF1.2
aF1.0
aF1.0
aF1.0
aF1.0
aF1.0
aF1.0
aF1.0
aF1.0
aF1.0
aF1.0
aF1.0
aF1.0
aF1.0
aF1.0
aF1.0
aF1.0
aF1.0
aF1.0
aF1.0
aF1.0
aF1.4
aF1.0
aF1.0
aF1.0
aF1.0
aF1.0
aF1.0
aF1.0
aF1.0
aF1.0
aF1.0
aF1.0
aF1.0
aF1.0
aF1.0
aF1.0
aF1.0
aF1.0
aF1.0
aF1.0
aF1.0
aF1.0
aF1.0
aF1.0
aF1.0
aF1.0
aF1.0
aF1.0
aF1.0
aF1.0
aF1.0
aF1.0
aF1.0
aF1.0
aF1.0
aF1.0
aF1.0
aF1.0
aF1.0
aF1.0
aF1.5
aF2.1
aF1.8
aF1.0
aF1.0
aF1.3
aF1.8
aF1.0
aF1.0
aF1.0
aF1.0
aF1.0
aF1.0
aF1.0
aF1.0
aF1.0
aF1.0
aF1.0
aF1.0
aF1.0
aF1.0
aF1.0
aF1.0
aF1.0
aF1.0
aF1.0
aF1.0
aF1.0
aF1.0
aF1.0
aF1.4
aF1.0
aF1.0
aF1.0
aF1.5
aF1.0
aF1.0
aF1.0
aF1.0
aF1.4
aF1.0
aF1.0
aF1.0
aF1.0
aF1.0
aF1.0
aF1.0
aF1.0
aF1.0
aF1.0
aF1.0
aF1.0
aF1.0
aF1.0
aF1.0
aF1.0
aF1.0
aF1.0
aF1.0
aF1.0
aF1.0
aF1.0
aF1.0
aF1.0
aF1.0
aF1.0
aF1.0
aF1.0
aF1.0
aF1.0
aF1.0
aF1.0
aF1.0
aF1.0
aF1.0
aF1.0
aF1.0
aF1.0
aF1.0
aF1.0
aF1.0
aF1.0
aF1.0
aF1.0
aF1.0
aF1.0
aF1.0
aF1.0
aF1.0
aF1.0
aF1.0
aF1.0
aF1.0
aF1.0
aF1.0
aF1.0
aF1.0
aF1.0
aF1.0
aF1.0
aF1.0
aF1.0
aF1.0
aF1.0
aF1.0
aF1.0
aF1.0
aF1.0
aF1.0
aF1.0
aF1.0
aF1.0
aF1.0
aF1.0
aF1.0
aF1.0
aF1.0
aF1.0
aF1.0
aF1.0
aF1.0
aF1.0
aF1.0
aF1.0
aF1.0
aF1.0
aF1.0
aF1.0
aF1.0
aF1.0
aF1.0
aF1.0
aF1.0
aF1.0
aF1.0
aF1.0
aF1.0
aF1.0
aF1.0
aF1.0
aF1.0
aF1.0
aF1.0
aF1.0
aF1.0
aF1.0
aF1.0
aF1.0
aF1.0
aF1.0
aF1.0
aF1.0
aF1.0
aF1.0
aF1.0
aF1.0
aF1.0
aF1.0
aF1.0
aF1.0
aF1.0
aF1.0
aF1.0
aF1.0
aF1.0
aF1.0
aF1.0
aF1.0
aF1.0
aF1.0
aF1.0
aF1.0
aF1.0
aF1.0
aF1.0
aF1.0
aF1.0
aF1.0
aF1.0
aF1.0
aF1.0
aF1.0
aF1.0
aF1.0
aF1.0
aF1.0
aF1.0
aF1.0
aF1.0
aF1.0
aF1.0
aF1.0
aF1.0
aF1.0
aF1.0
aF1.0
aF1.0
aF1.0
aF1.0
aF1.0
aF1.0
aF1.0
aF1.0
aF1.0
aF1.0
aF1.0
aF1.0
aF1.0
aF1.0
aF1.0
aF1.0
aF1.0
aF1.0
aF1.0
aF1.0
aF1.0
aF1.0
aF1.0
aF1.0
aF1.0
aF1.0
aF1.0
aF1.0
aF1.0
aF1.0
aF1.0
aF1.0
aF1.0
aF1.0
aF1.0
aF1.0
aF1.0
aF1.0
aF1.0
aF1.0
aF1.0
aF1.0
aF1.0
aF1.0
aF1.0
aF1.0
aF1.0
aF1.0
aF1.0
aF1.0
aF1.0
aF1.0
aF1.0
aF1.0
aF1.0
aF1.0
aF1.0
aF1.0
aF1.0
aF1.0
aF1.0
aF1.0
aF1.0
aF1.0
aF1.0
aF1.0
aF1.0
aF1.0
aF1.0
aF1.0
aF1.0
aF1.0
aF1.0
aF1.0
aF1.0
aF1.0
aF1.0
aF1.0
aF1.0
aF1.0
aF1.0
aF1.0
aF1.0
aF1.0
aF1.0
aF1.0
aF1.0
aF1.0
aF1.0
aF1.0
aF1.0
aF1.0
aF1.0
aF1.0
aF1.0
aF1.0
aF1.0
aF1.0
aF1.0
aF1.0
aF1.0
aF1.0
aF1.0
aF1.0
aF1.0
aF1.0
aF1.0
aF1.0
aF1.0
aF1.0
aF1.0
aF1.0
aF1.0
aF1.0
aF1.0
aF1.0
aF1.0
aF1.0
aF1.0
aF1.0
aF1.0
aF1.0
aF1.0
aF1.0
aF1.0
aF1.0
aF1.0
aF1.0
aF1.0
aF1.0
aF1.0
aF1.0
aF1.0
aF1.0
aF1.0
aF1.0
aF1.0
aF1.0
aF1.0
aF1.0
aF1.0
aF1.0
aF1.0
aF1.0
aF1.0
aF1.0
aF1.0
aF1.0
asg27
(lp59
I532
aI532
aI532
aI570
aI609
aI609
aI609
aI609
aI609
aI609
aI609
aI609
aI609
aI609
aI513
aI606
aI606
aI513
aI527
aI527
aI527
aI527
aI527
aI527
aI527
aI527
aI527
aI527
aI527
aI527
aI516
aI516
aI516
aI516
aI516
aI516
aI516
aI516
aI516
aI516
aI516
aI521
aI521
aI521
aI521
aI507
aI507
aI507
aI724
aI507
aI507
aI507
aI507
aI507
aI507
aI507
aI507
aI511
aI511
aI729
aI511
aI511
aI511
aI511
aI511
aI511
aI511
aI511
aI511
aI520
aI520
aI520
aI520
aI520
aI520
aI520
aI520
aI520
aI520
aI520
aI529
aI529
aI529
aI529
aI529
aI529
aI529
aI529
aI529
aI529
aI529
aI529
aI529
aI518
aI518
aI518
aI518
aI518
aI518
aI518
aI518
aI518
aI518
aI518
aI518
aI523
aI523
aI523
aI523
aI523
aI523
aI523
aI523
aI523
aI523
aI523
aI525
aI525
aI525
aI525
aI525
aI525
aI525
aI525
aI525
aI570
aI570
aI570
aI507
aI507
aI507
aI506
aI506
aI506
aI506
aI506
aI507
aI507
aI507
aI507
aI507
aI513
aI513
aI513
aI513
aI513
aI513
aI513
aI513
aI513
aI513
aI513
aI513
aI522
aI522
aI522
aI522
aI522
aI522
aI522
aI561
aI561
aI561
aI541
aI541
aI541
aI541
aI541
aI541
aI541
aI541
aI541
aI541
aI541
aI538
aI538
aI538
aI538
aI511
aI511
aI511
aI511
aI511
aI511
aI730
aI817
aI511
aI511
aI506
aI506
aI506
aI506
aI506
aI506
aI506
aI506
aI507
aI507
aI507
aI507
aI507
aI507
aI507
aI507
aI507
aI507
aI507
aI507
aI509
aI509
aI509
aI509
aI509
aI509
aI509
aI509
aI509
aI509
aI509
aI509
aI503
aI503
aI503
aI503
aI503
aI503
aI503
aI503
aI512
aI512
aI512
aI527
aI541
aI541
aI541
aI541
aI541
aI541
aI541
aI541
aI541
aI541
aI544
aI544
aI557
aI557
aI525
aI525
aI525
aI525
aI525
aI525
aI511
aI511
aI511
aI511
aI511
aI511
aI511
aI511
aI507
aI507
aI507
aI507
aI507
aI507
aI507
aI507
aI507
aI507
aI507
aI507
aI509
aI509
aI509
aI509
aI509
aI509
aI509
aI509
aI506
aI506
aI506
aI506
aI506
aI504
aI504
aI504
aI504
aI504
aI504
aI504
aI504
aI504
aI504
aI527
aI527
aI574
aI574
aI574
aI574
aI564
aI574
aI574
aI574
aI574
aI574
aI574
aI574
aI590
aI590
aI590
aI590
aI590
aI590
aI590
aI590
aI590
aI590
aI590
aI590
aI463
aI463
aI463
aI463
aI463
aI463
aI463
aI463
aI463
aI463
aI463
aI550
aI550
aI550
aI550
aI550
aI550
aI550
aI550
aI550
aI550
aI550
aI550
aI550
aI505
aI505
aI505
aI505
aI507
aI507
aI507
aI507
aI507
aI507
aI507
aI507
aI507
aI507
aI507
aI507
aI507
aI507
aI552
aI552
aI552
aI542
aI542
aI542
aI542
aI542
aI542
aI542
aI542
aI542
aI542
aI542
aI542
aI539
aI539
aI539
aI539
aI539
aI510
aI510
aI510
aI510
aI510
aI510
aI510
aI510
aI510
aI510
aI510
aI510
aI505
aI505
aI505
aI505
aI505
aI505
aI505
aI505
aI505
aI505
aI505
aI505
aI506
aI506
aI506
aI506
aI506
aI506
aI577
aI577
aI577
aI577
aI577
aI577
aI558
aI558
aI558
aI558
aI558
aI558
aI558
aI558
aI558
aI558
aI558
aI558
aI548
aI548
aI548
aI548
aI548
aI548
aI548
aI556
aI556
aI556
aI556
aI515
aI515
aI515
aI515
aI515
aI513
aI513
aI513
aI513
aI513
aI513
aI513
aI513
aI513
aI513
aI525
aI525
aI525
aI525
aI525
aI525
aI525
aI560
aI560
aI560
aI560
aI560
aI560
aI560
aI560
aI560
aI560
aI560
aI560
aI560
aI512
aI512
aI512
aI512
aI512
aI512
aI512
aI512
aI510
aI510
aI510
aI510
aI510
aI510
aI510
aI528
aI528
aI528
aI528
aI528
aI528
aI509
aI509
aI509
aI509
aI509
aI503
aI503
aI503
aI503
aI503
aI503
aI503
aI503
aI503
aI503
aI503
aI503
aI512
aI512
aI512
aI512
aI512
aI512
aI512
aI586
aI586
aI586
aI546
aI546
aI546
aI546
aI546
aI546
aI546
aI546
aI546
aI546
aI546
aI546
aI541
aI541
aI541
aI541
aI541
aI506
aI506
aI506
aI506
aI506
aI506
aI504
aI504
aI504
aI504
aI504
aI504
aI504
aI504
aI504
aI504
aI504
aI504
aI510
aI510
aI510
aI510
aI510
aI510
aI510
aI510
aI510
aI510
aI511
aI511
aI511
aI511
aI511
aI511
aI511
aI511
aI555
aI555
aI555
aI555
aI511
aI511
aI511
aI574
aI574
aI574
aI574
aI574
aI574
aI574
aI574
aI574
aI574
aI577
aI577
aI577
aI552
aI552
aI552
aI552
aI552
aI552
aI552
aI542
aI542
aI542
aI542
aI542
aI542
aI542
aI542
aI542
aI542
asg29
(lp60
I237
aI237
aI237
aI322
aI321
aI264
aI264
aI264
aI264
aI264
aI264
aI264
aI264
aI264
aI230
aI263
aI263
aI230
aI236
aI236
aI236
aI236
aI236
aI236
aI236
aI236
aI236
aI236
aI236
aI236
aI231
aI231
aI231
aI231
aI231
aI231
aI231
aI231
aI231
aI231
aI231
aI232
aI232
aI311
aI311
aI228
aI228
aI228
aI228
aI228
aI228
aI228
aI228
aI228
aI228
aI228
aI228
aI229
aI229
aI229
aI260
aI290
aI275
aI229
aI229
aI229
aI229
aI229
aI229
aI232
aI232
aI232
aI232
aI232
aI311
aI406
aI295
aI232
aI232
aI232
aI236
aI317
aI236
aI317
aI317
aI236
aI236
aI236
aI236
aI317
aI414
aI301
aI236
aI232
aI232
aI232
aI232
aI232
aI232
aI232
aI232
aI232
aI232
aI232
aI232
aI234
aI234
aI234
aI234
aI234
aI234
aI234
aI234
aI313
aI281
aI234
aI234
aI234
aI234
aI234
aI234
aI234
aI234
aI234
aI234
aI250
aI250
aI250
aI228
aI228
aI228
aI227
aI227
aI227
aI227
aI227
aI228
aI228
aI228
aI228
aI228
aI230
aI230
aI230
aI230
aI230
aI230
aI230
aI230
aI230
aI230
aI230
aI230
aI313
aI233
aI233
aI233
aI313
aI265
aI265
aI247
aI247
aI247
aI240
aI240
aI240
aI240
aI323
aI422
aI306
aI240
aI240
aI240
aI240
aI240
aI240
aI240
aI240
aI229
aI229
aI229
aI229
aI229
aI229
aI229
aI229
aI229
aI229
aI227
aI227
aI227
aI227
aI227
aI227
aI303
aI395
aI304
aI228
aI228
aI228
aI228
aI228
aI228
aI228
aI228
aI228
aI228
aI289
aI381
aI488
aI366
aI259
aI228
aI228
aI228
aI228
aI228
aI228
aI228
aI228
aI226
aI226
aI226
aI226
aI226
aI226
aI226
aI226
aI229
aI229
aI229
aI235
aI307
aI241
aI241
aI241
aI241
aI241
aI241
aI241
aI241
aI241
aI242
aI242
aI246
aI246
aI234
aI234
aI234
aI234
aI234
aI234
aI229
aI229
aI229
aI229
aI229
aI229
aI229
aI229
aI227
aI227
aI227
aI227
aI227
aI227
aI227
aI227
aI227
aI227
aI227
aI227
aI305
aI398
aI351
aI228
aI228
aI274
aI351
aI228
aI227
aI227
aI227
aI227
aI227
aI226
aI226
aI226
aI226
aI226
aI226
aI226
aI226
aI226
aI226
aI235
aI235
aI252
aI252
aI252
aI252
aI250
aI323
aI252
aI252
aI252
aI340
aI252
aI252
aI258
aI258
aI331
aI258
aI258
aI258
aI258
aI258
aI258
aI258
aI258
aI258
aI165
aI165
aI165
aI165
aI165
aI165
aI165
aI165
aI165
aI165
aI165
aI228
aI228
aI228
aI228
aI228
aI228
aI228
aI228
aI228
aI228
aI228
aI228
aI228
aI227
aI227
aI227
aI227
aI228
aI228
aI228
aI228
aI228
aI228
aI228
aI228
aI228
aI228
aI228
aI228
aI228
aI228
aI245
aI245
aI245
aI225
aI225
aI225
aI225
aI225
aI225
aI225
aI225
aI225
aI225
aI225
aI225
aI240
aI240
aI240
aI240
aI240
aI228
aI228
aI228
aI228
aI228
aI228
aI228
aI228
aI228
aI228
aI228
aI228
aI227
aI227
aI227
aI227
aI227
aI227
aI227
aI227
aI227
aI227
aI227
aI227
aI227
aI227
aI227
aI227
aI227
aI227
aI254
aI254
aI254
aI254
aI254
aI254
aI247
aI247
aI247
aI247
aI247
aI247
aI247
aI247
aI247
aI247
aI247
aI247
aI226
aI226
aI226
aI226
aI226
aI226
aI226
aI246
aI246
aI246
aI246
aI230
aI230
aI230
aI230
aI230
aI230
aI230
aI230
aI230
aI230
aI230
aI230
aI230
aI230
aI230
aI234
aI234
aI234
aI234
aI234
aI234
aI234
aI246
aI246
aI246
aI246
aI246
aI246
aI246
aI246
aI246
aI246
aI246
aI246
aI246
aI229
aI229
aI229
aI229
aI229
aI229
aI229
aI229
aI228
aI228
aI228
aI228
aI228
aI228
aI228
aI235
aI235
aI235
aI235
aI235
aI235
aI228
aI228
aI228
aI228
aI228
aI226
aI226
aI226
aI226
aI226
aI226
aI226
aI226
aI226
aI226
aI226
aI226
aI229
aI229
aI229
aI229
aI229
aI229
aI229
aI256
aI256
aI256
aI226
aI226
aI226
aI226
aI226
aI226
aI226
aI226
aI226
aI226
aI226
aI226
aI241
aI241
aI241
aI241
aI241
aI227
aI227
aI227
aI227
aI227
aI227
aI226
aI226
aI226
aI226
aI226
aI226
aI226
aI226
aI226
aI226
aI226
aI226
aI229
aI229
aI229
aI229
aI229
aI229
aI229
aI229
aI229
aI229
aI229
aI229
aI229
aI229
aI229
aI229
aI229
aI229
aI245
aI245
aI245
aI245
aI229
aI229
aI229
aI252
aI252
aI252
aI252
aI252
aI252
aI252
aI252
aI252
aI252
aI253
aI253
aI253
aI245
aI245
aI245
aI245
aI245
aI245
aI245
aI225
aI225
aI225
aI225
aI225
aI225
aI225
aI225
aI225
aI225
asba.