(lp0
ccopy_reg
_reconstructor
p1
(c__main__
Uber
p2
c__builtin__
object
p3
Ntp4
Rp5
(dp6
S'black_high'
p7
(lp8
I230
aI230
aI230
aI250
aI262
aI262
aI262
aI262
aI262
aI262
aI262
aI262
aI262
aI262
aI262
aI255
aI255
aI255
aI201
aI201
aI201
aI201
aI201
aI201
aI201
aI201
aI201
aI201
aI201
aI201
aI183
aI183
aI183
aI183
aI183
aI183
aI183
aI183
aI183
aI183
aI183
aI216
aI216
aI216
aI216
aI213
aI213
aI213
aI320
aI213
aI213
aI213
aI213
aI213
aI213
aI213
aI213
aI215
aI215
aI322
aI215
aI215
aI215
aI215
aI215
aI215
aI215
aI215
aI215
aI193
aI193
aI193
aI193
aI193
aI193
aI193
aI193
aI193
aI193
aI193
aI233
aI233
aI233
aI233
aI233
aI233
aI233
aI233
aI233
aI233
aI233
aI233
aI233
aI211
aI211
aI211
aI211
aI211
aI211
aI211
aI211
aI211
aI211
aI211
aI211
aI214
aI214
aI214
aI214
aI214
aI214
aI214
aI214
aI214
aI214
aI214
aI219
aI219
aI219
aI219
aI219
aI219
aI219
aI219
aI219
aI232
aI232
aI232
asS'suv_surge'
p9
(lp10
F1.0
aF1.0
aF1.0
aF1.0
aF1.0
aF1.0
aF1.0
aF1.0
aF1.0
aF1.0
aF1.0
aF1.0
aF1.0
aF1.0
aF1.0
aF1.0
aF1.0
aF1.0
aF1.0
aF1.0
aF1.0
aF1.0
aF1.0
aF1.0
aF1.0
aF1.0
aF1.0
aF1.0
aF1.0
aF1.0
aF1.0
aF1.0
aF1.0
aF1.0
aF1.0
aF1.0
aF1.0
aF1.0
aF1.0
aF1.0
aF1.0
aF1.0
aF1.0
aF1.0
aF1.0
aF1.0
aF1.0
aF1.0
aF1.5
aF1.0
aF1.0
aF1.0
aF1.0
aF1.0
aF1.0
aF1.0
aF1.0
aF1.0
aF1.0
aF1.5
aF1.0
aF1.0
aF1.0
aF1.0
aF1.0
aF1.0
aF1.0
aF1.0
aF1.0
aF1.0
aF1.0
aF1.0
aF1.0
aF1.0
aF1.0
aF1.0
aF1.0
aF1.0
aF1.0
aF1.0
aF1.0
aF1.0
aF1.0
aF1.0
aF1.0
aF1.0
aF1.0
aF1.0
aF1.0
aF1.0
aF1.0
aF1.0
aF1.0
aF1.0
aF1.0
aF1.0
aF1.0
aF1.0
aF1.0
aF1.0
aF1.0
aF1.0
aF1.0
aF1.0
aF1.0
aF1.0
aF1.0
aF1.0
aF1.0
aF1.0
aF1.0
aF1.0
aF1.0
aF1.0
aF1.0
aF1.0
aF1.0
aF1.0
aF1.0
aF1.0
aF1.0
aF1.0
aF1.0
aF1.0
aF1.0
aF1.0
aF1.0
aF1.0
asS'suv_high'
p11
(lp12
I230
aI230
aI230
aI250
aI262
aI262
aI262
aI262
aI262
aI262
aI262
aI262
aI262
aI262
aI262
aI255
aI255
aI255
aI201
aI201
aI201
aI201
aI201
aI201
aI201
aI201
aI201
aI201
aI201
aI201
aI183
aI183
aI183
aI183
aI183
aI183
aI183
aI183
aI183
aI183
aI183
aI216
aI216
aI216
aI216
aI213
aI213
aI213
aI320
aI213
aI213
aI213
aI213
aI213
aI213
aI213
aI213
aI215
aI215
aI322
aI215
aI215
aI215
aI215
aI215
aI215
aI215
aI215
aI215
aI193
aI193
aI193
aI193
aI193
aI193
aI193
aI193
aI193
aI193
aI193
aI233
aI233
aI233
aI233
aI233
aI233
aI233
aI233
aI233
aI233
aI233
aI233
aI233
aI211
aI211
aI211
aI211
aI211
aI211
aI211
aI211
aI211
aI211
aI211
aI211
aI214
aI214
aI214
aI214
aI214
aI214
aI214
aI214
aI214
aI214
aI214
aI219
aI219
aI219
aI219
aI219
aI219
aI219
aI219
aI219
aI232
aI232
aI232
asS'sedan_high'
p13
(lp14
I230
aI230
aI230
aI250
aI262
aI262
aI262
aI262
aI262
aI262
aI262
aI262
aI262
aI262
aI262
aI255
aI255
aI255
aI201
aI201
aI201
aI201
aI201
aI201
aI201
aI201
aI201
aI201
aI201
aI201
aI183
aI183
aI183
aI183
aI183
aI183
aI183
aI183
aI183
aI183
aI183
aI216
aI216
aI216
aI216
aI213
aI213
aI213
aI320
aI213
aI213
aI213
aI213
aI213
aI213
aI213
aI213
aI215
aI215
aI322
aI215
aI215
aI215
aI215
aI215
aI215
aI215
aI215
aI215
aI193
aI193
aI193
aI193
aI193
aI193
aI193
aI193
aI193
aI193
aI193
aI233
aI233
aI233
aI233
aI233
aI233
aI233
aI233
aI233
aI233
aI233
aI233
aI233
aI211
aI211
aI211
aI211
aI211
aI211
aI211
aI211
aI211
aI211
aI211
aI211
aI214
aI214
aI214
aI214
aI214
aI214
aI214
aI214
aI214
aI214
aI214
aI219
aI219
aI219
aI219
aI219
aI219
aI219
aI219
aI219
aI232
aI232
aI232
asS'sedan_low'
p15
(lp16
I184
aI184
aI184
aI199
aI208
aI208
aI208
aI208
aI208
aI208
aI208
aI208
aI208
aI208
aI208
aI203
aI203
aI203
aI163
aI163
aI163
aI163
aI163
aI163
aI163
aI163
aI163
aI163
aI163
aI163
aI149
aI149
aI149
aI149
aI149
aI149
aI149
aI149
aI149
aI149
aI149
aI174
aI174
aI174
aI174
aI172
aI172
aI172
aI258
aI172
aI172
aI172
aI172
aI172
aI172
aI172
aI172
aI173
aI173
aI259
aI173
aI173
aI173
aI173
aI173
aI173
aI173
aI173
aI173
aI156
aI156
aI156
aI156
aI156
aI156
aI156
aI156
aI156
aI156
aI156
aI186
aI186
aI186
aI186
aI186
aI186
aI186
aI186
aI186
aI186
aI186
aI186
aI186
aI170
aI170
aI170
aI170
aI170
aI170
aI170
aI170
aI170
aI170
aI170
aI170
aI172
aI172
aI172
aI172
aI172
aI172
aI172
aI172
aI172
aI172
aI172
aI176
aI176
aI176
aI176
aI176
aI176
aI176
aI176
aI176
aI186
aI186
aI186
asS'uberx_high'
p17
(lp18
I88
aI88
aI88
aI134
aI130
aI100
aI100
aI100
aI100
aI100
aI100
aI100
aI100
aI100
aI100
aI98
aI98
aI98
aI78
aI78
aI78
aI78
aI78
aI78
aI78
aI78
aI78
aI78
aI78
aI78
aI72
aI72
aI72
aI72
aI72
aI72
aI72
aI72
aI72
aI72
aI72
aI82
aI82
aI123
aI123
aI82
aI82
aI82
aI82
aI82
aI82
aI82
aI82
aI82
aI82
aI82
aI82
aI82
aI82
aI82
aI98
aI114
aI106
aI82
aI82
aI82
aI82
aI82
aI82
aI75
aI75
aI75
aI75
aI75
aI112
aI157
aI105
aI75
aI75
aI75
aI89
aI133
aI89
aI133
aI133
aI89
aI89
aI89
aI89
aI133
aI187
aI125
aI89
aI81
aI81
aI81
aI81
aI81
aI81
aI81
aI81
aI81
aI81
aI81
aI81
aI82
aI82
aI82
aI82
aI82
aI82
aI82
aI82
aI123
aI107
aI82
aI84
aI84
aI84
aI84
aI84
aI84
aI84
aI84
aI84
aI89
aI89
aI89
asS'black_surge'
p19
(lp20
F1.0
aF1.0
aF1.0
aF1.0
aF1.0
aF1.0
aF1.0
aF1.0
aF1.0
aF1.0
aF1.0
aF1.0
aF1.0
aF1.0
aF1.0
aF1.0
aF1.0
aF1.0
aF1.0
aF1.0
aF1.0
aF1.0
aF1.0
aF1.0
aF1.0
aF1.0
aF1.0
aF1.0
aF1.0
aF1.0
aF1.0
aF1.0
aF1.0
aF1.0
aF1.0
aF1.0
aF1.0
aF1.0
aF1.0
aF1.0
aF1.0
aF1.0
aF1.0
aF1.0
aF1.0
aF1.0
aF1.0
aF1.0
aF1.5
aF1.0
aF1.0
aF1.0
aF1.0
aF1.0
aF1.0
aF1.0
aF1.0
aF1.0
aF1.0
aF1.5
aF1.0
aF1.0
aF1.0
aF1.0
aF1.0
aF1.0
aF1.0
aF1.0
aF1.0
aF1.0
aF1.0
aF1.0
aF1.0
aF1.0
aF1.0
aF1.0
aF1.0
aF1.0
aF1.0
aF1.0
aF1.0
aF1.0
aF1.0
aF1.0
aF1.0
aF1.0
aF1.0
aF1.0
aF1.0
aF1.0
aF1.0
aF1.0
aF1.0
aF1.0
aF1.0
aF1.0
aF1.0
aF1.0
aF1.0
aF1.0
aF1.0
aF1.0
aF1.0
aF1.0
aF1.0
aF1.0
aF1.0
aF1.0
aF1.0
aF1.0
aF1.0
aF1.0
aF1.0
aF1.0
aF1.0
aF1.0
aF1.0
aF1.0
aF1.0
aF1.0
aF1.0
aF1.0
aF1.0
aF1.0
aF1.0
aF1.0
aF1.0
aF1.0
asS'suv_low'
p21
(lp22
I184
aI184
aI184
aI199
aI208
aI208
aI208
aI208
aI208
aI208
aI208
aI208
aI208
aI208
aI208
aI203
aI203
aI203
aI163
aI163
aI163
aI163
aI163
aI163
aI163
aI163
aI163
aI163
aI163
aI163
aI149
aI149
aI149
aI149
aI149
aI149
aI149
aI149
aI149
aI149
aI149
aI174
aI174
aI174
aI174
aI172
aI172
aI172
aI258
aI172
aI172
aI172
aI172
aI172
aI172
aI172
aI172
aI173
aI173
aI259
aI173
aI173
aI173
aI173
aI173
aI173
aI173
aI173
aI173
aI156
aI156
aI156
aI156
aI156
aI156
aI156
aI156
aI156
aI156
aI156
aI186
aI186
aI186
aI186
aI186
aI186
aI186
aI186
aI186
aI186
aI186
aI186
aI186
aI170
aI170
aI170
aI170
aI170
aI170
aI170
aI170
aI170
aI170
aI170
aI170
aI172
aI172
aI172
aI172
aI172
aI172
aI172
aI172
aI172
aI172
aI172
aI176
aI176
aI176
aI176
aI176
aI176
aI176
aI176
aI176
aI186
aI186
aI186
asS'sedan_surge'
p23
(lp24
F1.0
aF1.0
aF1.0
aF1.0
aF1.0
aF1.0
aF1.0
aF1.0
aF1.0
aF1.0
aF1.0
aF1.0
aF1.0
aF1.0
aF1.0
aF1.0
aF1.0
aF1.0
aF1.0
aF1.0
aF1.0
aF1.0
aF1.0
aF1.0
aF1.0
aF1.0
aF1.0
aF1.0
aF1.0
aF1.0
aF1.0
aF1.0
aF1.0
aF1.0
aF1.0
aF1.0
aF1.0
aF1.0
aF1.0
aF1.0
aF1.0
aF1.0
aF1.0
aF1.0
aF1.0
aF1.0
aF1.0
aF1.0
aF1.5
aF1.0
aF1.0
aF1.0
aF1.0
aF1.0
aF1.0
aF1.0
aF1.0
aF1.0
aF1.0
aF1.5
aF1.0
aF1.0
aF1.0
aF1.0
aF1.0
aF1.0
aF1.0
aF1.0
aF1.0
aF1.0
aF1.0
aF1.0
aF1.0
aF1.0
aF1.0
aF1.0
aF1.0
aF1.0
aF1.0
aF1.0
aF1.0
aF1.0
aF1.0
aF1.0
aF1.0
aF1.0
aF1.0
aF1.0
aF1.0
aF1.0
aF1.0
aF1.0
aF1.0
aF1.0
aF1.0
aF1.0
aF1.0
aF1.0
aF1.0
aF1.0
aF1.0
aF1.0
aF1.0
aF1.0
aF1.0
aF1.0
aF1.0
aF1.0
aF1.0
aF1.0
aF1.0
aF1.0
aF1.0
aF1.0
aF1.0
aF1.0
aF1.0
aF1.0
aF1.0
aF1.0
aF1.0
aF1.0
aF1.0
aF1.0
aF1.0
aF1.0
aF1.0
aF1.0
asS'uberx_surge'
p25
(lp26
F1.0
aF1.0
aF1.0
aF1.4
aF1.3
aF1.0
aF1.0
aF1.0
aF1.0
aF1.0
aF1.0
aF1.0
aF1.0
aF1.0
aF1.0
aF1.0
aF1.0
aF1.0
aF1.0
aF1.0
aF1.0
aF1.0
aF1.0
aF1.0
aF1.0
aF1.0
aF1.0
aF1.0
aF1.0
aF1.0
aF1.0
aF1.0
aF1.0
aF1.0
aF1.0
aF1.0
aF1.0
aF1.0
aF1.0
aF1.0
aF1.0
aF1.0
aF1.0
aF1.5
aF1.5
aF1.0
aF1.0
aF1.0
aF1.0
aF1.0
aF1.0
aF1.0
aF1.0
aF1.0
aF1.0
aF1.0
aF1.0
aF1.0
aF1.0
aF1.0
aF1.2
aF1.4
aF1.3
aF1.0
aF1.0
aF1.0
aF1.0
aF1.0
aF1.0
aF1.0
aF1.0
aF1.0
aF1.0
aF1.0
aF1.5
aF2.1
aF1.4
aF1.0
aF1.0
aF1.0
aF1.0
aF1.5
aF1.0
aF1.5
aF1.5
aF1.0
aF1.0
aF1.0
aF1.0
aF1.5
aF2.1
aF1.4
aF1.0
aF1.0
aF1.0
aF1.0
aF1.0
aF1.0
aF1.0
aF1.0
aF1.0
aF1.0
aF1.0
aF1.0
aF1.0
aF1.0
aF1.0
aF1.0
aF1.0
aF1.0
aF1.0
aF1.0
aF1.0
aF1.5
aF1.3
aF1.0
aF1.0
aF1.0
aF1.0
aF1.0
aF1.0
aF1.0
aF1.0
aF1.0
aF1.0
aF1.0
aF1.0
aF1.0
asS'black_low'
p27
(lp28
I184
aI184
aI184
aI199
aI208
aI208
aI208
aI208
aI208
aI208
aI208
aI208
aI208
aI208
aI208
aI203
aI203
aI203
aI163
aI163
aI163
aI163
aI163
aI163
aI163
aI163
aI163
aI163
aI163
aI163
aI149
aI149
aI149
aI149
aI149
aI149
aI149
aI149
aI149
aI149
aI149
aI174
aI174
aI174
aI174
aI172
aI172
aI172
aI258
aI172
aI172
aI172
aI172
aI172
aI172
aI172
aI172
aI173
aI173
aI259
aI173
aI173
aI173
aI173
aI173
aI173
aI173
aI173
aI173
aI156
aI156
aI156
aI156
aI156
aI156
aI156
aI156
aI156
aI156
aI156
aI186
aI186
aI186
aI186
aI186
aI186
aI186
aI186
aI186
aI186
aI186
aI186
aI186
aI170
aI170
aI170
aI170
aI170
aI170
aI170
aI170
aI170
aI170
aI170
aI170
aI172
aI172
aI172
aI172
aI172
aI172
aI172
aI172
aI172
aI172
aI172
aI176
aI176
aI176
aI176
aI176
aI176
aI176
aI176
aI176
aI186
aI186
aI186
asS'uberx_low'
p29
(lp30
I72
aI72
aI72
aI108
aI105
aI80
aI80
aI80
aI80
aI80
aI80
aI80
aI80
aI80
aI80
aI79
aI79
aI79
aI64
aI64
aI64
aI64
aI64
aI64
aI64
aI64
aI64
aI64
aI64
aI64
aI59
aI59
aI59
aI59
aI59
aI59
aI59
aI59
aI59
aI59
aI59
aI67
aI67
aI101
aI101
aI67
aI67
aI67
aI67
aI67
aI67
aI67
aI67
aI67
aI67
aI67
aI67
aI67
aI67
aI67
aI80
aI94
aI87
aI67
aI67
aI67
aI67
aI67
aI67
aI62
aI62
aI62
aI62
aI62
aI93
aI130
aI86
aI62
aI62
aI62
aI72
aI109
aI72
aI109
aI109
aI72
aI72
aI72
aI72
aI109
aI152
aI101
aI72
aI66
aI66
aI66
aI66
aI66
aI66
aI66
aI66
aI66
aI66
aI66
aI66
aI67
aI67
aI67
aI67
aI67
aI67
aI67
aI67
aI101
aI88
aI67
aI68
aI68
aI68
aI68
aI68
aI68
aI68
aI68
aI68
aI72
aI72
aI72
asbag1
(g2
g3
Ntp31
Rp32
(dp33
g7
(lp34
I538
aI538
aI538
aI532
aI495
aI495
aI495
aI495
aI495
aI495
aI495
aI495
aI495
aI495
aI495
aI490
aI490
aI490
aI550
aI550
aI550
aI550
aI550
aI550
aI550
aI550
aI550
aI550
aI550
aI550
aI550
aI550
aI550
aI550
aI550
aI550
aI550
aI550
aI550
aI550
aI550
aI548
aI548
aI548
aI548
aI536
aI536
aI536
aI779
aI536
aI536
aI536
aI536
aI536
aI536
aI536
aI536
aI546
aI546
aI789
aI546
aI546
aI546
aI546
aI546
aI546
aI546
aI546
aI546
aI551
aI551
aI551
aI551
aI551
aI551
aI551
aI551
aI551
aI551
aI551
aI691
aI691
aI691
aI691
aI691
aI691
aI691
aI691
aI691
aI691
aI691
aI691
aI691
aI556
aI556
aI556
aI556
aI556
aI556
aI556
aI556
aI556
aI556
aI556
aI556
aI556
aI556
aI556
aI556
aI556
aI556
aI556
aI556
aI556
aI556
aI556
aI556
aI553
aI553
aI553
aI553
aI553
aI553
aI553
aI553
aI613
aI613
aI613
asg9
(lp35
F1.0
aF1.0
aF1.0
aF1.0
aF1.0
aF1.0
aF1.0
aF1.0
aF1.0
aF1.0
aF1.0
aF1.0
aF1.0
aF1.0
aF1.0
aF1.0
aF1.0
aF1.0
aF1.0
aF1.0
aF1.0
aF1.0
aF1.0
aF1.0
aF1.0
aF1.0
aF1.0
aF1.0
aF1.0
aF1.0
aF1.0
aF1.0
aF1.0
aF1.0
aF1.0
aF1.0
aF1.0
aF1.0
aF1.0
aF1.0
aF1.0
aF1.0
aF1.0
aF1.0
aF1.0
aF1.0
aF1.0
aF1.0
aF1.5
aF1.0
aF1.0
aF1.0
aF1.0
aF1.0
aF1.0
aF1.0
aF1.0
aF1.0
aF1.0
aF1.5
aF1.0
aF1.0
aF1.0
aF1.0
aF1.0
aF1.0
aF1.0
aF1.0
aF1.0
aF1.0
aF1.0
aF1.0
aF1.0
aF1.0
aF1.0
aF1.0
aF1.0
aF1.0
aF1.0
aF1.0
aF1.0
aF1.0
aF1.0
aF1.0
aF1.0
aF1.0
aF1.0
aF1.0
aF1.0
aF1.0
aF1.0
aF1.0
aF1.0
aF1.0
aF1.0
aF1.0
aF1.0
aF1.0
aF1.0
aF1.0
aF1.0
aF1.0
aF1.0
aF1.0
aF1.0
aF1.0
aF1.0
aF1.0
aF1.0
aF1.0
aF1.0
aF1.0
aF1.0
aF1.0
aF1.0
aF1.0
aF1.0
aF1.0
aF1.0
aF1.0
aF1.0
aF1.0
aF1.0
aF1.0
aF1.0
aF1.0
aF1.0
aF1.0
asg11
(lp36
I538
aI538
aI538
aI532
aI495
aI495
aI495
aI495
aI495
aI495
aI495
aI495
aI495
aI495
aI495
aI490
aI490
aI490
aI550
aI550
aI550
aI550
aI550
aI550
aI550
aI550
aI550
aI550
aI550
aI550
aI550
aI550
aI550
aI550
aI550
aI550
aI550
aI550
aI550
aI550
aI550
aI548
aI548
aI548
aI548
aI536
aI536
aI536
aI779
aI536
aI536
aI536
aI536
aI536
aI536
aI536
aI536
aI546
aI546
aI789
aI546
aI546
aI546
aI546
aI546
aI546
aI546
aI546
aI546
aI551
aI551
aI551
aI551
aI551
aI551
aI551
aI551
aI551
aI551
aI551
aI691
aI691
aI691
aI691
aI691
aI691
aI691
aI691
aI691
aI691
aI691
aI691
aI691
aI556
aI556
aI556
aI556
aI556
aI556
aI556
aI556
aI556
aI556
aI556
aI556
aI556
aI556
aI556
aI556
aI556
aI556
aI556
aI556
aI556
aI556
aI556
aI556
aI553
aI553
aI553
aI553
aI553
aI553
aI553
aI553
aI613
aI613
aI613
asg13
(lp37
I538
aI538
aI538
aI532
aI495
aI495
aI495
aI495
aI495
aI495
aI495
aI495
aI495
aI495
aI495
aI490
aI490
aI490
aI550
aI550
aI550
aI550
aI550
aI550
aI550
aI550
aI550
aI550
aI550
aI550
aI550
aI550
aI550
aI550
aI550
aI550
aI550
aI550
aI550
aI550
aI550
aI548
aI548
aI548
aI548
aI536
aI536
aI536
aI779
aI536
aI536
aI536
aI536
aI536
aI536
aI536
aI536
aI546
aI546
aI789
aI546
aI546
aI546
aI546
aI546
aI546
aI546
aI546
aI546
aI551
aI551
aI551
aI551
aI551
aI551
aI551
aI551
aI551
aI551
aI551
aI691
aI691
aI691
aI691
aI691
aI691
aI691
aI691
aI691
aI691
aI691
aI691
aI691
aI556
aI556
aI556
aI556
aI556
aI556
aI556
aI556
aI556
aI556
aI556
aI556
aI556
aI556
aI556
aI556
aI556
aI556
aI556
aI556
aI556
aI556
aI556
aI556
aI553
aI553
aI553
aI553
aI553
aI553
aI553
aI553
aI613
aI613
aI613
asg15
(lp38
I428
aI428
aI428
aI411
aI383
aI383
aI383
aI383
aI383
aI383
aI383
aI383
aI383
aI383
aI383
aI379
aI379
aI379
aI441
aI441
aI441
aI441
aI441
aI441
aI441
aI441
aI441
aI441
aI441
aI441
aI441
aI441
aI441
aI441
aI441
aI441
aI441
aI441
aI441
aI441
aI441
aI438
aI438
aI438
aI438
aI426
aI426
aI426
aI615
aI426
aI426
aI426
aI426
aI426
aI426
aI426
aI426
aI436
aI436
aI624
aI436
aI436
aI436
aI436
aI436
aI436
aI436
aI436
aI436
aI440
aI440
aI440
aI440
aI440
aI440
aI440
aI440
aI440
aI440
aI440
aI560
aI560
aI560
aI560
aI560
aI560
aI560
aI560
aI560
aI560
aI560
aI560
aI560
aI445
aI445
aI445
aI445
aI445
aI445
aI445
aI445
aI445
aI445
aI445
aI445
aI444
aI444
aI444
aI444
aI444
aI444
aI444
aI444
aI444
aI444
aI444
aI444
aI442
aI442
aI442
aI442
aI442
aI442
aI442
aI442
aI488
aI488
aI488
asg17
(lp39
I225
aI225
aI225
aI267
aI232
aI179
aI179
aI179
aI179
aI179
aI179
aI179
aI179
aI179
aI179
aI177
aI177
aI177
aI237
aI237
aI237
aI237
aI237
aI237
aI237
aI237
aI237
aI237
aI237
aI237
aI236
aI236
aI236
aI236
aI236
aI236
aI236
aI236
aI236
aI236
aI236
aI232
aI232
aI318
aI318
aI222
aI222
aI222
aI222
aI222
aI222
aI222
aI222
aI222
aI222
aI222
aI222
aI232
aI232
aI232
aI266
aI300
aI283
aI232
aI232
aI232
aI232
aI232
aI232
aI233
aI233
aI233
aI233
aI233
aI320
aI424
aI303
aI233
aI233
aI233
aI321
aI422
aI321
aI422
aI422
aI321
aI321
aI321
aI321
aI422
aI542
aI401
aI321
aI239
aI239
aI239
aI239
aI239
aI239
aI239
aI239
aI239
aI239
aI239
aI239
aI236
aI236
aI236
aI236
aI236
aI236
aI236
aI236
aI324
aI288
aI236
aI236
aI235
aI235
aI235
aI235
aI235
aI235
aI235
aI235
aI258
aI258
aI258
asg19
(lp40
F1.0
aF1.0
aF1.0
aF1.0
aF1.0
aF1.0
aF1.0
aF1.0
aF1.0
aF1.0
aF1.0
aF1.0
aF1.0
aF1.0
aF1.0
aF1.0
aF1.0
aF1.0
aF1.0
aF1.0
aF1.0
aF1.0
aF1.0
aF1.0
aF1.0
aF1.0
aF1.0
aF1.0
aF1.0
aF1.0
aF1.0
aF1.0
aF1.0
aF1.0
aF1.0
aF1.0
aF1.0
aF1.0
aF1.0
aF1.0
aF1.0
aF1.0
aF1.0
aF1.0
aF1.0
aF1.0
aF1.0
aF1.0
aF1.5
aF1.0
aF1.0
aF1.0
aF1.0
aF1.0
aF1.0
aF1.0
aF1.0
aF1.0
aF1.0
aF1.5
aF1.0
aF1.0
aF1.0
aF1.0
aF1.0
aF1.0
aF1.0
aF1.0
aF1.0
aF1.0
aF1.0
aF1.0
aF1.0
aF1.0
aF1.0
aF1.0
aF1.0
aF1.0
aF1.0
aF1.0
aF1.0
aF1.0
aF1.0
aF1.0
aF1.0
aF1.0
aF1.0
aF1.0
aF1.0
aF1.0
aF1.0
aF1.0
aF1.0
aF1.0
aF1.0
aF1.0
aF1.0
aF1.0
aF1.0
aF1.0
aF1.0
aF1.0
aF1.0
aF1.0
aF1.0
aF1.0
aF1.0
aF1.0
aF1.0
aF1.0
aF1.0
aF1.0
aF1.0
aF1.0
aF1.0
aF1.0
aF1.0
aF1.0
aF1.0
aF1.0
aF1.0
aF1.0
aF1.0
aF1.0
aF1.0
aF1.0
aF1.0
aF1.0
asg21
(lp41
I428
aI428
aI428
aI411
aI383
aI383
aI383
aI383
aI383
aI383
aI383
aI383
aI383
aI383
aI383
aI379
aI379
aI379
aI441
aI441
aI441
aI441
aI441
aI441
aI441
aI441
aI441
aI441
aI441
aI441
aI441
aI441
aI441
aI441
aI441
aI441
aI441
aI441
aI441
aI441
aI441
aI438
aI438
aI438
aI438
aI426
aI426
aI426
aI615
aI426
aI426
aI426
aI426
aI426
aI426
aI426
aI426
aI436
aI436
aI624
aI436
aI436
aI436
aI436
aI436
aI436
aI436
aI436
aI436
aI440
aI440
aI440
aI440
aI440
aI440
aI440
aI440
aI440
aI440
aI440
aI560
aI560
aI560
aI560
aI560
aI560
aI560
aI560
aI560
aI560
aI560
aI560
aI560
aI445
aI445
aI445
aI445
aI445
aI445
aI445
aI445
aI445
aI445
aI445
aI445
aI444
aI444
aI444
aI444
aI444
aI444
aI444
aI444
aI444
aI444
aI444
aI444
aI442
aI442
aI442
aI442
aI442
aI442
aI442
aI442
aI488
aI488
aI488
asg23
(lp42
F1.0
aF1.0
aF1.0
aF1.0
aF1.0
aF1.0
aF1.0
aF1.0
aF1.0
aF1.0
aF1.0
aF1.0
aF1.0
aF1.0
aF1.0
aF1.0
aF1.0
aF1.0
aF1.0
aF1.0
aF1.0
aF1.0
aF1.0
aF1.0
aF1.0
aF1.0
aF1.0
aF1.0
aF1.0
aF1.0
aF1.0
aF1.0
aF1.0
aF1.0
aF1.0
aF1.0
aF1.0
aF1.0
aF1.0
aF1.0
aF1.0
aF1.0
aF1.0
aF1.0
aF1.0
aF1.0
aF1.0
aF1.0
aF1.5
aF1.0
aF1.0
aF1.0
aF1.0
aF1.0
aF1.0
aF1.0
aF1.0
aF1.0
aF1.0
aF1.5
aF1.0
aF1.0
aF1.0
aF1.0
aF1.0
aF1.0
aF1.0
aF1.0
aF1.0
aF1.0
aF1.0
aF1.0
aF1.0
aF1.0
aF1.0
aF1.0
aF1.0
aF1.0
aF1.0
aF1.0
aF1.0
aF1.0
aF1.0
aF1.0
aF1.0
aF1.0
aF1.0
aF1.0
aF1.0
aF1.0
aF1.0
aF1.0
aF1.0
aF1.0
aF1.0
aF1.0
aF1.0
aF1.0
aF1.0
aF1.0
aF1.0
aF1.0
aF1.0
aF1.0
aF1.0
aF1.0
aF1.0
aF1.0
aF1.0
aF1.0
aF1.0
aF1.0
aF1.0
aF1.0
aF1.0
aF1.0
aF1.0
aF1.0
aF1.0
aF1.0
aF1.0
aF1.0
aF1.0
aF1.0
aF1.0
aF1.0
aF1.0
aF1.0
asg25
(lp43
F1.0
aF1.0
aF1.0
aF1.4
aF1.3
aF1.0
aF1.0
aF1.0
aF1.0
aF1.0
aF1.0
aF1.0
aF1.0
aF1.0
aF1.0
aF1.0
aF1.0
aF1.0
aF1.0
aF1.0
aF1.0
aF1.0
aF1.0
aF1.0
aF1.0
aF1.0
aF1.0
aF1.0
aF1.0
aF1.0
aF1.0
aF1.0
aF1.0
aF1.0
aF1.0
aF1.0
aF1.0
aF1.0
aF1.0
aF1.0
aF1.0
aF1.0
aF1.0
aF1.5
aF1.5
aF1.0
aF1.0
aF1.0
aF1.0
aF1.0
aF1.0
aF1.0
aF1.0
aF1.0
aF1.0
aF1.0
aF1.0
aF1.0
aF1.0
aF1.0
aF1.2
aF1.4
aF1.3
aF1.0
aF1.0
aF1.0
aF1.0
aF1.0
aF1.0
aF1.0
aF1.0
aF1.0
aF1.0
aF1.0
aF1.5
aF2.1
aF1.4
aF1.0
aF1.0
aF1.0
aF1.0
aF1.5
aF1.0
aF1.5
aF1.5
aF1.0
aF1.0
aF1.0
aF1.0
aF1.5
aF2.1
aF1.4
aF1.0
aF1.0
aF1.0
aF1.0
aF1.0
aF1.0
aF1.0
aF1.0
aF1.0
aF1.0
aF1.0
aF1.0
aF1.0
aF1.0
aF1.0
aF1.0
aF1.0
aF1.0
aF1.0
aF1.0
aF1.0
aF1.5
aF1.3
aF1.0
aF1.0
aF1.0
aF1.0
aF1.0
aF1.0
aF1.0
aF1.0
aF1.0
aF1.0
aF1.0
aF1.0
aF1.0
asg27
(lp44
I428
aI428
aI428
aI411
aI383
aI383
aI383
aI383
aI383
aI383
aI383
aI383
aI383
aI383
aI383
aI379
aI379
aI379
aI441
aI441
aI441
aI441
aI441
aI441
aI441
aI441
aI441
aI441
aI441
aI441
aI441
aI441
aI441
aI441
aI441
aI441
aI441
aI441
aI441
aI441
aI441
aI438
aI438
aI438
aI438
aI426
aI426
aI426
aI615
aI426
aI426
aI426
aI426
aI426
aI426
aI426
aI426
aI436
aI436
aI624
aI436
aI436
aI436
aI436
aI436
aI436
aI436
aI436
aI436
aI440
aI440
aI440
aI440
aI440
aI440
aI440
aI440
aI440
aI440
aI440
aI560
aI560
aI560
aI560
aI560
aI560
aI560
aI560
aI560
aI560
aI560
aI560
aI560
aI445
aI445
aI445
aI445
aI445
aI445
aI445
aI445
aI445
aI445
aI445
aI445
aI444
aI444
aI444
aI444
aI444
aI444
aI444
aI444
aI444
aI444
aI444
aI444
aI442
aI442
aI442
aI442
aI442
aI442
aI442
aI442
aI488
aI488
aI488
asg29
(lp45
I186
aI186
aI186
aI208
aI181
aI139
aI139
aI139
aI139
aI139
aI139
aI139
aI139
aI139
aI139
aI138
aI138
aI138
aI199
aI199
aI199
aI199
aI199
aI199
aI199
aI199
aI199
aI199
aI199
aI199
aI199
aI199
aI199
aI199
aI199
aI199
aI199
aI199
aI199
aI199
aI199
aI195
aI195
aI262
aI262
aI184
aI184
aI184
aI184
aI184
aI184
aI184
aI184
aI184
aI184
aI184
aI184
aI194
aI194
aI194
aI221
aI248
aI235
aI194
aI194
aI194
aI194
aI194
aI194
aI195
aI195
aI195
aI195
aI195
aI263
aI345
aI250
aI195
aI195
aI195
aI276
aI355
aI276
aI355
aI355
aI276
aI276
aI276
aI276
aI355
aI449
aI339
aI276
aI201
aI201
aI201
aI201
aI201
aI201
aI201
aI201
aI201
aI201
aI201
aI201
aI197
aI197
aI197
aI197
aI197
aI197
aI197
aI197
aI266
aI239
aI197
aI197
aI196
aI196
aI196
aI196
aI196
aI196
aI196
aI196
aI215
aI215
aI215
asbag1
(g2
g3
Ntp46
Rp47
(dp48
g7
(lp49
I668
aI668
aI668
aI719
aI771
aI771
aI771
aI771
aI771
aI771
aI771
aI771
aI771
aI771
aI643
aI768
aI768
aI643
aI662
aI662
aI662
aI662
aI662
aI662
aI662
aI662
aI662
aI662
aI662
aI662
aI647
aI647
aI647
aI647
aI647
aI647
aI647
aI647
aI647
aI647
aI647
aI654
aI654
aI654
aI654
aI636
aI636
aI636
aI916
aI636
aI636
aI636
aI636
aI636
aI636
aI636
aI636
aI641
aI641
aI923
aI641
aI641
aI641
aI641
aI641
aI641
aI641
aI641
aI641
aI653
aI653
aI653
aI653
aI653
aI653
aI653
aI653
aI653
aI653
aI653
aI665
aI665
aI665
aI665
aI665
aI665
aI665
aI665
aI665
aI665
aI665
aI665
aI665
aI650
aI650
aI650
aI650
aI650
aI650
aI650
aI650
aI650
aI650
aI650
aI650
aI657
aI657
aI657
aI657
aI657
aI657
aI657
aI657
aI657
aI657
aI657
aI660
aI660
aI660
aI660
aI660
aI660
aI660
aI660
aI660
aI720
aI720
aI720
asg9
(lp50
F1.0
aF1.0
aF1.0
aF1.0
aF1.0
aF1.0
aF1.0
aF1.0
aF1.0
aF1.0
aF1.0
aF1.0
aF1.0
aF1.0
aF1.0
aF1.0
aF1.0
aF1.0
aF1.0
aF1.0
aF1.0
aF1.0
aF1.0
aF1.0
aF1.0
aF1.0
aF1.0
aF1.0
aF1.0
aF1.0
aF1.0
aF1.0
aF1.0
aF1.0
aF1.0
aF1.0
aF1.0
aF1.0
aF1.0
aF1.0
aF1.0
aF1.0
aF1.0
aF1.0
aF1.0
aF1.0
aF1.0
aF1.0
aF1.5
aF1.0
aF1.0
aF1.0
aF1.0
aF1.0
aF1.0
aF1.0
aF1.0
aF1.0
aF1.0
aF1.5
aF1.0
aF1.0
aF1.0
aF1.0
aF1.0
aF1.0
aF1.0
aF1.0
aF1.0
aF1.0
aF1.0
aF1.0
aF1.0
aF1.0
aF1.0
aF1.0
aF1.0
aF1.0
aF1.0
aF1.0
aF1.0
aF1.0
aF1.0
aF1.0
aF1.0
aF1.0
aF1.0
aF1.0
aF1.0
aF1.0
aF1.0
aF1.0
aF1.0
aF1.0
aF1.0
aF1.0
aF1.0
aF1.0
aF1.0
aF1.0
aF1.0
aF1.0
aF1.0
aF1.0
aF1.0
aF1.0
aF1.0
aF1.0
aF1.0
aF1.0
aF1.0
aF1.0
aF1.0
aF1.0
aF1.0
aF1.0
aF1.0
aF1.0
aF1.0
aF1.0
aF1.0
aF1.0
aF1.0
aF1.0
aF1.0
aF1.0
aF1.0
aF1.0
asg11
(lp51
I668
aI668
aI668
aI719
aI771
aI771
aI771
aI771
aI771
aI771
aI771
aI771
aI771
aI771
aI643
aI768
aI768
aI643
aI662
aI662
aI662
aI662
aI662
aI662
aI662
aI662
aI662
aI662
aI662
aI662
aI647
aI647
aI647
aI647
aI647
aI647
aI647
aI647
aI647
aI647
aI647
aI654
aI654
aI654
aI654
aI636
aI636
aI636
aI916
aI636
aI636
aI636
aI636
aI636
aI636
aI636
aI636
aI641
aI641
aI923
aI641
aI641
aI641
aI641
aI641
aI641
aI641
aI641
aI641
aI653
aI653
aI653
aI653
aI653
aI653
aI653
aI653
aI653
aI653
aI653
aI665
aI665
aI665
aI665
aI665
aI665
aI665
aI665
aI665
aI665
aI665
aI665
aI665
aI650
aI650
aI650
aI650
aI650
aI650
aI650
aI650
aI650
aI650
aI650
aI650
aI657
aI657
aI657
aI657
aI657
aI657
aI657
aI657
aI657
aI657
aI657
aI660
aI660
aI660
aI660
aI660
aI660
aI660
aI660
aI660
aI720
aI720
aI720
asg13
(lp52
I668
aI668
aI668
aI719
aI771
aI771
aI771
aI771
aI771
aI771
aI771
aI771
aI771
aI771
aI643
aI768
aI768
aI643
aI662
aI662
aI662
aI662
aI662
aI662
aI662
aI662
aI662
aI662
aI662
aI662
aI647
aI647
aI647
aI647
aI647
aI647
aI647
aI647
aI647
aI647
aI647
aI654
aI654
aI654
aI654
aI636
aI636
aI636
aI916
aI636
aI636
aI636
aI636
aI636
aI636
aI636
aI636
aI641
aI641
aI923
aI641
aI641
aI641
aI641
aI641
aI641
aI641
aI641
aI641
aI653
aI653
aI653
aI653
aI653
aI653
aI653
aI653
aI653
aI653
aI653
aI665
aI665
aI665
aI665
aI665
aI665
aI665
aI665
aI665
aI665
aI665
aI665
aI665
aI650
aI650
aI650
aI650
aI650
aI650
aI650
aI650
aI650
aI650
aI650
aI650
aI657
aI657
aI657
aI657
aI657
aI657
aI657
aI657
aI657
aI657
aI657
aI660
aI660
aI660
aI660
aI660
aI660
aI660
aI660
aI660
aI720
aI720
aI720
asg15
(lp53
I532
aI532
aI532
aI570
aI609
aI609
aI609
aI609
aI609
aI609
aI609
aI609
aI609
aI609
aI513
aI606
aI606
aI513
aI527
aI527
aI527
aI527
aI527
aI527
aI527
aI527
aI527
aI527
aI527
aI527
aI516
aI516
aI516
aI516
aI516
aI516
aI516
aI516
aI516
aI516
aI516
aI521
aI521
aI521
aI521
aI507
aI507
aI507
aI724
aI507
aI507
aI507
aI507
aI507
aI507
aI507
aI507
aI511
aI511
aI729
aI511
aI511
aI511
aI511
aI511
aI511
aI511
aI511
aI511
aI520
aI520
aI520
aI520
aI520
aI520
aI520
aI520
aI520
aI520
aI520
aI529
aI529
aI529
aI529
aI529
aI529
aI529
aI529
aI529
aI529
aI529
aI529
aI529
aI518
aI518
aI518
aI518
aI518
aI518
aI518
aI518
aI518
aI518
aI518
aI518
aI523
aI523
aI523
aI523
aI523
aI523
aI523
aI523
aI523
aI523
aI523
aI525
aI525
aI525
aI525
aI525
aI525
aI525
aI525
aI525
aI570
aI570
aI570
asg17
(lp54
I284
aI284
aI284
aI394
aI394
aI320
aI320
aI320
aI320
aI320
aI320
aI320
aI320
aI320
aI274
aI319
aI319
aI274
aI282
aI282
aI282
aI282
aI282
aI282
aI282
aI282
aI282
aI282
aI282
aI282
aI276
aI276
aI276
aI276
aI276
aI276
aI276
aI276
aI276
aI276
aI276
aI277
aI277
aI378
aI378
aI271
aI271
aI271
aI271
aI271
aI271
aI271
aI271
aI271
aI271
aI271
aI271
aI273
aI273
aI273
aI312
aI352
aI332
aI273
aI273
aI273
aI273
aI273
aI273
aI277
aI277
aI277
aI277
aI277
aI378
aI500
aI358
aI277
aI277
aI277
aI282
aI386
aI282
aI386
aI386
aI282
aI282
aI282
aI282
aI386
aI510
aI365
aI282
aI277
aI277
aI277
aI277
aI277
aI277
aI277
aI277
aI277
aI277
aI277
aI277
aI279
aI279
aI279
aI279
aI279
aI279
aI279
aI279
aI381
aI340
aI279
aI280
aI280
aI280
aI280
aI280
aI280
aI280
aI280
aI280
aI301
aI301
aI301
asg19
(lp55
F1.0
aF1.0
aF1.0
aF1.0
aF1.0
aF1.0
aF1.0
aF1.0
aF1.0
aF1.0
aF1.0
aF1.0
aF1.0
aF1.0
aF1.0
aF1.0
aF1.0
aF1.0
aF1.0
aF1.0
aF1.0
aF1.0
aF1.0
aF1.0
aF1.0
aF1.0
aF1.0
aF1.0
aF1.0
aF1.0
aF1.0
aF1.0
aF1.0
aF1.0
aF1.0
aF1.0
aF1.0
aF1.0
aF1.0
aF1.0
aF1.0
aF1.0
aF1.0
aF1.0
aF1.0
aF1.0
aF1.0
aF1.0
aF1.5
aF1.0
aF1.0
aF1.0
aF1.0
aF1.0
aF1.0
aF1.0
aF1.0
aF1.0
aF1.0
aF1.5
aF1.0
aF1.0
aF1.0
aF1.0
aF1.0
aF1.0
aF1.0
aF1.0
aF1.0
aF1.0
aF1.0
aF1.0
aF1.0
aF1.0
aF1.0
aF1.0
aF1.0
aF1.0
aF1.0
aF1.0
aF1.0
aF1.0
aF1.0
aF1.0
aF1.0
aF1.0
aF1.0
aF1.0
aF1.0
aF1.0
aF1.0
aF1.0
aF1.0
aF1.0
aF1.0
aF1.0
aF1.0
aF1.0
aF1.0
aF1.0
aF1.0
aF1.0
aF1.0
aF1.0
aF1.0
aF1.0
aF1.0
aF1.0
aF1.0
aF1.0
aF1.0
aF1.0
aF1.0
aF1.0
aF1.0
aF1.0
aF1.0
aF1.0
aF1.0
aF1.0
aF1.0
aF1.0
aF1.0
aF1.0
aF1.0
aF1.0
aF1.0
aF1.0
asg21
(lp56
I532
aI532
aI532
aI570
aI609
aI609
aI609
aI609
aI609
aI609
aI609
aI609
aI609
aI609
aI513
aI606
aI606
aI513
aI527
aI527
aI527
aI527
aI527
aI527
aI527
aI527
aI527
aI527
aI527
aI527
aI516
aI516
aI516
aI516
aI516
aI516
aI516
aI516
aI516
aI516
aI516
aI521
aI521
aI521
aI521
aI507
aI507
aI507
aI724
aI507
aI507
aI507
aI507
aI507
aI507
aI507
aI507
aI511
aI511
aI729
aI511
aI511
aI511
aI511
aI511
aI511
aI511
aI511
aI511
aI520
aI520
aI520
aI520
aI520
aI520
aI520
aI520
aI520
aI520
aI520
aI529
aI529
aI529
aI529
aI529
aI529
aI529
aI529
aI529
aI529
aI529
aI529
aI529
aI518
aI518
aI518
aI518
aI518
aI518
aI518
aI518
aI518
aI518
aI518
aI518
aI523
aI523
aI523
aI523
aI523
aI523
aI523
aI523
aI523
aI523
aI523
aI525
aI525
aI525
aI525
aI525
aI525
aI525
aI525
aI525
aI570
aI570
aI570
asg23
(lp57
F1.0
aF1.0
aF1.0
aF1.0
aF1.0
aF1.0
aF1.0
aF1.0
aF1.0
aF1.0
aF1.0
aF1.0
aF1.0
aF1.0
aF1.0
aF1.0
aF1.0
aF1.0
aF1.0
aF1.0
aF1.0
aF1.0
aF1.0
aF1.0
aF1.0
aF1.0
aF1.0
aF1.0
aF1.0
aF1.0
aF1.0
aF1.0
aF1.0
aF1.0
aF1.0
aF1.0
aF1.0
aF1.0
aF1.0
aF1.0
aF1.0
aF1.0
aF1.0
aF1.0
aF1.0
aF1.0
aF1.0
aF1.0
aF1.5
aF1.0
aF1.0
aF1.0
aF1.0
aF1.0
aF1.0
aF1.0
aF1.0
aF1.0
aF1.0
aF1.5
aF1.0
aF1.0
aF1.0
aF1.0
aF1.0
aF1.0
aF1.0
aF1.0
aF1.0
aF1.0
aF1.0
aF1.0
aF1.0
aF1.0
aF1.0
aF1.0
aF1.0
aF1.0
aF1.0
aF1.0
aF1.0
aF1.0
aF1.0
aF1.0
aF1.0
aF1.0
aF1.0
aF1.0
aF1.0
aF1.0
aF1.0
aF1.0
aF1.0
aF1.0
aF1.0
aF1.0
aF1.0
aF1.0
aF1.0
aF1.0
aF1.0
aF1.0
aF1.0
aF1.0
aF1.0
aF1.0
aF1.0
aF1.0
aF1.0
aF1.0
aF1.0
aF1.0
aF1.0
aF1.0
aF1.0
aF1.0
aF1.0
aF1.0
aF1.0
aF1.0
aF1.0
aF1.0
aF1.0
aF1.0
aF1.0
aF1.0
aF1.0
aF1.0
asg25
(lp58
F1.0
aF1.0
aF1.0
aF1.4
aF1.3
aF1.0
aF1.0
aF1.0
aF1.0
aF1.0
aF1.0
aF1.0
aF1.0
aF1.0
aF1.0
aF1.0
aF1.0
aF1.0
aF1.0
aF1.0
aF1.0
aF1.0
aF1.0
aF1.0
aF1.0
aF1.0
aF1.0
aF1.0
aF1.0
aF1.0
aF1.0
aF1.0
aF1.0
aF1.0
aF1.0
aF1.0
aF1.0
aF1.0
aF1.0
aF1.0
aF1.0
aF1.0
aF1.0
aF1.5
aF1.5
aF1.0
aF1.0
aF1.0
aF1.0
aF1.0
aF1.0
aF1.0
aF1.0
aF1.0
aF1.0
aF1.0
aF1.0
aF1.0
aF1.0
aF1.0
aF1.2
aF1.4
aF1.3
aF1.0
aF1.0
aF1.0
aF1.0
aF1.0
aF1.0
aF1.0
aF1.0
aF1.0
aF1.0
aF1.0
aF1.5
aF2.1
aF1.4
aF1.0
aF1.0
aF1.0
aF1.0
aF1.5
aF1.0
aF1.5
aF1.5
aF1.0
aF1.0
aF1.0
aF1.0
aF1.5
aF2.1
aF1.4
aF1.0
aF1.0
aF1.0
aF1.0
aF1.0
aF1.0
aF1.0
aF1.0
aF1.0
aF1.0
aF1.0
aF1.0
aF1.0
aF1.0
aF1.0
aF1.0
aF1.0
aF1.0
aF1.0
aF1.0
aF1.0
aF1.5
aF1.3
aF1.0
aF1.0
aF1.0
aF1.0
aF1.0
aF1.0
aF1.0
aF1.0
aF1.0
aF1.0
aF1.0
aF1.0
aF1.0
asg27
(lp59
I532
aI532
aI532
aI570
aI609
aI609
aI609
aI609
aI609
aI609
aI609
aI609
aI609
aI609
aI513
aI606
aI606
aI513
aI527
aI527
aI527
aI527
aI527
aI527
aI527
aI527
aI527
aI527
aI527
aI527
aI516
aI516
aI516
aI516
aI516
aI516
aI516
aI516
aI516
aI516
aI516
aI521
aI521
aI521
aI521
aI507
aI507
aI507
aI724
aI507
aI507
aI507
aI507
aI507
aI507
aI507
aI507
aI511
aI511
aI729
aI511
aI511
aI511
aI511
aI511
aI511
aI511
aI511
aI511
aI520
aI520
aI520
aI520
aI520
aI520
aI520
aI520
aI520
aI520
aI520
aI529
aI529
aI529
aI529
aI529
aI529
aI529
aI529
aI529
aI529
aI529
aI529
aI529
aI518
aI518
aI518
aI518
aI518
aI518
aI518
aI518
aI518
aI518
aI518
aI518
aI523
aI523
aI523
aI523
aI523
aI523
aI523
aI523
aI523
aI523
aI523
aI525
aI525
aI525
aI525
aI525
aI525
aI525
aI525
aI525
aI570
aI570
aI570
asg29
(lp60
I237
aI237
aI237
aI322
aI321
aI264
aI264
aI264
aI264
aI264
aI264
aI264
aI264
aI264
aI230
aI263
aI263
aI230
aI236
aI236
aI236
aI236
aI236
aI236
aI236
aI236
aI236
aI236
aI236
aI236
aI231
aI231
aI231
aI231
aI231
aI231
aI231
aI231
aI231
aI231
aI231
aI232
aI232
aI311
aI311
aI228
aI228
aI228
aI228
aI228
aI228
aI228
aI228
aI228
aI228
aI228
aI228
aI229
aI229
aI229
aI260
aI290
aI275
aI229
aI229
aI229
aI229
aI229
aI229
aI232
aI232
aI232
aI232
aI232
aI311
aI406
aI295
aI232
aI232
aI232
aI236
aI317
aI236
aI317
aI317
aI236
aI236
aI236
aI236
aI317
aI414
aI301
aI236
aI232
aI232
aI232
aI232
aI232
aI232
aI232
aI232
aI232
aI232
aI232
aI232
aI234
aI234
aI234
aI234
aI234
aI234
aI234
aI234
aI313
aI281
aI234
aI234
aI234
aI234
aI234
aI234
aI234
aI234
aI234
aI234
aI250
aI250
aI250
asba.